TN:
SF:/home/runner/work/ezsnmp/ezsnmp/cpp_tests/test_datatypes.cpp
FN:110,110,_ZN35ResultTest_VectorOfResultsTest_Test8TestBodyEv
FN:110,110,_ZN35ResultTest_VectorOfResultsTest_TestC2Ev
FN:110,110,_ZN35ResultTest_VectorOfResultsTest_TestD0Ev
FN:110,110,_ZN35ResultTest_VectorOfResultsTest_TestD2Ev
FN:140,171,_Z20testResultConversionRKNSt7__cxx1112basic_stringIcSt11char_traitsIcESaIcEEES6_S6_S6_S6_RKSt7variantIJijmdS4_St6vectorIhSaIhEEEE
FN:161,169,_ZZ20testResultConversionRKNSt7__cxx1112basic_stringIcSt11char_traitsIcESaIcEEES6_S6_S6_S6_RKSt7variantIJijmdS4_St6vectorIhSaIhEEEEENKUlOT_E_clIRS4_EEDaSF_
FN:161,169,_ZZ20testResultConversionRKNSt7__cxx1112basic_stringIcSt11char_traitsIcESaIcEEES6_S6_S6_S6_RKSt7variantIJijmdS4_St6vectorIhSaIhEEEEENKUlOT_E_clIRSA_EEDaSF_
FN:161,169,_ZZ20testResultConversionRKNSt7__cxx1112basic_stringIcSt11char_traitsIcESaIcEEES6_S6_S6_S6_RKSt7variantIJijmdS4_St6vectorIhSaIhEEEEENKUlOT_E_clIRdEEDaSF_
FN:161,169,_ZZ20testResultConversionRKNSt7__cxx1112basic_stringIcSt11char_traitsIcESaIcEEES6_S6_S6_S6_RKSt7variantIJijmdS4_St6vectorIhSaIhEEEEENKUlOT_E_clIRiEEDaSF_
FN:161,169,_ZZ20testResultConversionRKNSt7__cxx1112basic_stringIcSt11char_traitsIcESaIcEEES6_S6_S6_S6_RKSt7variantIJijmdS4_St6vectorIhSaIhEEEEENKUlOT_E_clIRjEEDaSF_
FN:161,169,_ZZ20testResultConversionRKNSt7__cxx1112basic_stringIcSt11char_traitsIcESaIcEEES6_S6_S6_S6_RKSt7variantIJijmdS4_St6vectorIhSaIhEEEEENKUlOT_E_clIRmEEDaSF_
FN:17,17,_ZN31ResultTest_EmptyFieldsTest_Test8TestBodyEv
FN:17,17,_ZN31ResultTest_EmptyFieldsTest_TestC2Ev
FN:17,17,_ZN31ResultTest_EmptyFieldsTest_TestD0Ev
FN:17,17,_ZN31ResultTest_EmptyFieldsTest_TestD2Ev
FN:182,182,_ZN44ResultConvertedValueTest_HandlesInteger_Test8TestBodyEv
FN:182,182,_ZN44ResultConvertedValueTest_HandlesInteger_TestC2Ev
FN:182,182,_ZN44ResultConvertedValueTest_HandlesInteger_TestD0Ev
FN:182,182,_ZN44ResultConvertedValueTest_HandlesInteger_TestD2Ev
FN:187,187,_ZN46ResultConvertedValueTest_HandlesCounter32_Test8TestBodyEv
FN:187,187,_ZN46ResultConvertedValueTest_HandlesCounter32_TestC2Ev
FN:187,187,_ZN46ResultConvertedValueTest_HandlesCounter32_TestD0Ev
FN:187,187,_ZN46ResultConvertedValueTest_HandlesCounter32_TestD2Ev
FN:192,192,_ZN46ResultConvertedValueTest_HandlesCounter64_Test8TestBodyEv
FN:192,192,_ZN46ResultConvertedValueTest_HandlesCounter64_TestC2Ev
FN:192,192,_ZN46ResultConvertedValueTest_HandlesCounter64_TestD0Ev
FN:192,192,_ZN46ResultConvertedValueTest_HandlesCounter64_TestD2Ev
FN:197,197,_ZN46ResultConvertedValueTest_HandlesTimeticks_Test8TestBodyEv
FN:197,197,_ZN46ResultConvertedValueTest_HandlesTimeticks_TestC2Ev
FN:197,197,_ZN46ResultConvertedValueTest_HandlesTimeticks_TestD0Ev
FN:197,197,_ZN46ResultConvertedValueTest_HandlesTimeticks_TestD2Ev
FN:202,202,_ZN55ResultConvertedValueTest_HandlesTimeticksAsInteger_Test8TestBodyEv
FN:202,202,_ZN55ResultConvertedValueTest_HandlesTimeticksAsInteger_TestC2Ev
FN:202,202,_ZN55ResultConvertedValueTest_HandlesTimeticksAsInteger_TestD0Ev
FN:202,202,_ZN55ResultConvertedValueTest_HandlesTimeticksAsInteger_TestD2Ev
FN:207,207,_ZN44ResultConvertedValueTest_HandlesGauge32_Test8TestBodyEv
FN:207,207,_ZN44ResultConvertedValueTest_HandlesGauge32_TestC2Ev
FN:207,207,_ZN44ResultConvertedValueTest_HandlesGauge32_TestD0Ev
FN:207,207,_ZN44ResultConvertedValueTest_HandlesGauge32_TestD2Ev
FN:212,212,_ZN46ResultConvertedValueTest_HandlesHexString_Test8TestBodyEv
FN:212,212,_ZN46ResultConvertedValueTest_HandlesHexString_TestC2Ev
FN:212,212,_ZN46ResultConvertedValueTest_HandlesHexString_TestD0Ev
FN:212,212,_ZN46ResultConvertedValueTest_HandlesHexString_TestD2Ev
FN:218,218,_ZN43ResultConvertedValueTest_HandlesString_Test8TestBodyEv
FN:218,218,_ZN43ResultConvertedValueTest_HandlesString_TestC2Ev
FN:218,218,_ZN43ResultConvertedValueTest_HandlesString_TestD0Ev
FN:218,218,_ZN43ResultConvertedValueTest_HandlesString_TestD2Ev
FN:223,223,_ZN40ResultConvertedValueTest_HandlesOid_Test8TestBodyEv
FN:223,223,_ZN40ResultConvertedValueTest_HandlesOid_TestC2Ev
FN:223,223,_ZN40ResultConvertedValueTest_HandlesOid_TestD0Ev
FN:223,223,_ZN40ResultConvertedValueTest_HandlesOid_TestD2Ev
FN:229,229,_ZN46ResultConvertedValueTest_HandlesIpAddress_Test8TestBodyEv
FN:229,229,_ZN46ResultConvertedValueTest_HandlesIpAddress_TestC2Ev
FN:229,229,_ZN46ResultConvertedValueTest_HandlesIpAddress_TestD0Ev
FN:229,229,_ZN46ResultConvertedValueTest_HandlesIpAddress_TestD2Ev
FN:234,234,_ZN51ResultConvertedValueTest_HandlesInvalidInteger_Test8TestBodyEv
FN:234,234,_ZN51ResultConvertedValueTest_HandlesInvalidInteger_TestC2Ev
FN:234,234,_ZN51ResultConvertedValueTest_HandlesInvalidInteger_TestD0Ev
FN:234,234,_ZN51ResultConvertedValueTest_HandlesInvalidInteger_TestD2Ev
FN:244,244,_ZN50ResultConvertedValueTest_HandlesZeroTimeticks_Test8TestBodyEv
FN:244,244,_ZN50ResultConvertedValueTest_HandlesZeroTimeticks_TestC2Ev
FN:244,244,_ZN50ResultConvertedValueTest_HandlesZeroTimeticks_TestD0Ev
FN:244,244,_ZN50ResultConvertedValueTest_HandlesZeroTimeticks_TestD2Ev
FN:249,252,_ZN58ResultConvertedValueTest_HandlesNegativeIntegerString_Test8TestBodyEv
FN:249,252,_ZN58ResultConvertedValueTest_HandlesNegativeIntegerString_TestC2Ev
FN:249,252,_ZN58ResultConvertedValueTest_HandlesNegativeIntegerString_TestD0Ev
FN:249,252,_ZN58ResultConvertedValueTest_HandlesNegativeIntegerString_TestD2Ev
FN:254,254,_ZN52ResultConvertedValueTest_HandlesIntegerWithText_Test8TestBodyEv
FN:254,254,_ZN52ResultConvertedValueTest_HandlesIntegerWithText_TestC2Ev
FN:254,254,_ZN52ResultConvertedValueTest_HandlesIntegerWithText_TestD0Ev
FN:254,254,_ZN52ResultConvertedValueTest_HandlesIntegerWithText_TestD2Ev
FN:259,259,_ZN57ResultConvertedValueTest_HandlesIntegerWithOtherText_Test8TestBodyEv
FN:259,259,_ZN57ResultConvertedValueTest_HandlesIntegerWithOtherText_TestC2Ev
FN:259,259,_ZN57ResultConvertedValueTest_HandlesIntegerWithOtherText_TestD0Ev
FN:259,259,_ZN57ResultConvertedValueTest_HandlesIntegerWithOtherText_TestD2Ev
FN:264,264,_ZN51ResultConvertedValueTest_HandlesNetworkAddress_Test8TestBodyEv
FN:264,264,_ZN51ResultConvertedValueTest_HandlesNetworkAddress_TestC2Ev
FN:264,264,_ZN51ResultConvertedValueTest_HandlesNetworkAddress_TestD0Ev
FN:264,264,_ZN51ResultConvertedValueTest_HandlesNetworkAddress_TestD2Ev
FN:269,269,_ZN48ResultConvertedValueTest_HandlesUnknownType_Test8TestBodyEv
FN:269,269,_ZN48ResultConvertedValueTest_HandlesUnknownType_TestC2Ev
FN:269,269,_ZN48ResultConvertedValueTest_HandlesUnknownType_TestD0Ev
FN:269,269,_ZN48ResultConvertedValueTest_HandlesUnknownType_TestD2Ev
FN:274,274,_ZN62ResultConvertedValueTest_HandlesEmptyValueWithNumericType_Test8TestBodyEv
FN:274,274,_ZN62ResultConvertedValueTest_HandlesEmptyValueWithNumericType_TestC2Ev
FN:274,274,_ZN62ResultConvertedValueTest_HandlesEmptyValueWithNumericType_TestD0Ev
FN:274,274,_ZN62ResultConvertedValueTest_HandlesEmptyValueWithNumericType_TestD2Ev
FN:28,28,_ZN37ResultTest_SpecialCharactersTest_Test8TestBodyEv
FN:28,28,_ZN37ResultTest_SpecialCharactersTest_TestC2Ev
FN:28,28,_ZN37ResultTest_SpecialCharactersTest_TestD0Ev
FN:28,28,_ZN37ResultTest_SpecialCharactersTest_TestD2Ev
FN:280,284,_ZN60ResultConvertedValueTest_HandlesEmptyValueWithHexString_Test8TestBodyEv
FN:280,284,_ZN60ResultConvertedValueTest_HandlesEmptyValueWithHexString_TestC2Ev
FN:280,284,_ZN60ResultConvertedValueTest_HandlesEmptyValueWithHexString_TestD0Ev
FN:280,284,_ZN60ResultConvertedValueTest_HandlesEmptyValueWithHexString_TestD2Ev
FN:286,286,_ZN57ResultConvertedValueTest_HandlesEmptyValueWithString_Test8TestBodyEv
FN:286,286,_ZN57ResultConvertedValueTest_HandlesEmptyValueWithString_TestC2Ev
FN:286,286,_ZN57ResultConvertedValueTest_HandlesEmptyValueWithString_TestD0Ev
FN:286,286,_ZN57ResultConvertedValueTest_HandlesEmptyValueWithString_TestD2Ev
FN:291,291,_ZN60ResultConvertedValueTest_HandlesOidWithValueZeroDotZero_Test8TestBodyEv
FN:291,291,_ZN60ResultConvertedValueTest_HandlesOidWithValueZeroDotZero_TestC2Ev
FN:291,291,_ZN60ResultConvertedValueTest_HandlesOidWithValueZeroDotZero_TestD0Ev
FN:291,291,_ZN60ResultConvertedValueTest_HandlesOidWithValueZeroDotZero_TestD2Ev
FN:296,296,_ZN52ResultConvertedValueTest_HandlesGauge32WithUnit_Test8TestBodyEv
FN:296,296,_ZN52ResultConvertedValueTest_HandlesGauge32WithUnit_TestC2Ev
FN:296,296,_ZN52ResultConvertedValueTest_HandlesGauge32WithUnit_TestD0Ev
FN:296,296,_ZN52ResultConvertedValueTest_HandlesGauge32WithUnit_TestD2Ev
FN:301,301,_ZN50ResultConvertedValueTest_HandlesZeroCounter32_Test8TestBodyEv
FN:301,301,_ZN50ResultConvertedValueTest_HandlesZeroCounter32_TestC2Ev
FN:301,301,_ZN50ResultConvertedValueTest_HandlesZeroCounter32_TestD0Ev
FN:301,301,_ZN50ResultConvertedValueTest_HandlesZeroCounter32_TestD2Ev
FN:306,309,_ZN50ResultConvertedValueTest_HandlesZeroCounter64_Test8TestBodyEv
FN:306,309,_ZN50ResultConvertedValueTest_HandlesZeroCounter64_TestC2Ev
FN:306,309,_ZN50ResultConvertedValueTest_HandlesZeroCounter64_TestD0Ev
FN:306,309,_ZN50ResultConvertedValueTest_HandlesZeroCounter64_TestD2Ev
FN:311,316,_ZN59ResultConvertedValueTest_HandlesMalformedHexCharacters_Test8TestBodyEv
FN:311,316,_ZN59ResultConvertedValueTest_HandlesMalformedHexCharacters_TestC2Ev
FN:311,316,_ZN59ResultConvertedValueTest_HandlesMalformedHexCharacters_TestD0Ev
FN:311,316,_ZN59ResultConvertedValueTest_HandlesMalformedHexCharacters_TestD2Ev
FN:319,319,_ZN58ResultConvertedValueTest_HandlesOctetStringConversion_Test8TestBodyEv
FN:319,319,_ZN58ResultConvertedValueTest_HandlesOctetStringConversion_TestC2Ev
FN:319,319,_ZN58ResultConvertedValueTest_HandlesOctetStringConversion_TestD0Ev
FN:319,319,_ZN58ResultConvertedValueTest_HandlesOctetStringConversion_TestD2Ev
FN:330,330,_ZN61ResultConvertedValueTest_HandlesIpAddressConversionError_Test8TestBodyEv
FN:330,330,_ZN61ResultConvertedValueTest_HandlesIpAddressConversionError_TestC2Ev
FN:330,330,_ZN61ResultConvertedValueTest_HandlesIpAddressConversionError_TestD0Ev
FN:330,330,_ZN61ResultConvertedValueTest_HandlesIpAddressConversionError_TestD2Ev
FN:335,335,_ZN42ResultConvertedValueTest_HandlesObjID_Test8TestBodyEv
FN:335,335,_ZN42ResultConvertedValueTest_HandlesObjID_TestC2Ev
FN:335,335,_ZN42ResultConvertedValueTest_HandlesObjID_TestD0Ev
FN:335,335,_ZN42ResultConvertedValueTest_HandlesObjID_TestD2Ev
FN:340,340,_ZN45ResultConvertedValueTest_HandlesNullType_Test8TestBodyEv
FN:340,340,_ZN45ResultConvertedValueTest_HandlesNullType_TestC2Ev
FN:340,340,_ZN45ResultConvertedValueTest_HandlesNullType_TestD0Ev
FN:340,340,_ZN45ResultConvertedValueTest_HandlesNullType_TestD2Ev
FN:345,345,_ZN46ResultConvertedValueTest_HandlesOtherType_Test8TestBodyEv
FN:345,345,_ZN46ResultConvertedValueTest_HandlesOtherType_TestC2Ev
FN:345,345,_ZN46ResultConvertedValueTest_HandlesOtherType_TestD0Ev
FN:345,345,_ZN46ResultConvertedValueTest_HandlesOtherType_TestD2Ev
FN:352,352,_ZN35ResultIntegrationTest_SysDescr_Test8TestBodyEv
FN:352,352,_ZN35ResultIntegrationTest_SysDescr_TestC2Ev
FN:352,352,_ZN35ResultIntegrationTest_SysDescr_TestD0Ev
FN:352,352,_ZN35ResultIntegrationTest_SysDescr_TestD2Ev
FN:363,363,_ZN38ResultIntegrationTest_SysObjectID_Test8TestBodyEv
FN:363,363,_ZN38ResultIntegrationTest_SysObjectID_TestC2Ev
FN:363,363,_ZN38ResultIntegrationTest_SysObjectID_TestD0Ev
FN:363,363,_ZN38ResultIntegrationTest_SysObjectID_TestD2Ev
FN:370,370,_ZN44ResultIntegrationTest_SysUpTimeInstance_Test8TestBodyEv
FN:370,370,_ZN44ResultIntegrationTest_SysUpTimeInstance_TestC2Ev
FN:370,370,_ZN44ResultIntegrationTest_SysUpTimeInstance_TestD0Ev
FN:370,370,_ZN44ResultIntegrationTest_SysUpTimeInstance_TestD2Ev
FN:378,378,_ZN35ResultIntegrationTest_IfNumber_Test8TestBodyEv
FN:378,378,_ZN35ResultIntegrationTest_IfNumber_TestC2Ev
FN:378,378,_ZN35ResultIntegrationTest_IfNumber_TestD0Ev
FN:378,378,_ZN35ResultIntegrationTest_IfNumber_TestD2Ev
FN:383,383,_ZN41ResultIntegrationTest_IfSpeedGauge32_Test8TestBodyEv
FN:383,383,_ZN41ResultIntegrationTest_IfSpeedGauge32_TestC2Ev
FN:383,383,_ZN41ResultIntegrationTest_IfSpeedGauge32_TestD0Ev
FN:383,383,_ZN41ResultIntegrationTest_IfSpeedGauge32_TestD2Ev
FN:389,389,_ZN57ResultIntegrationTest_IfPhysAddressStringContainsHex_Test8TestBodyEv
FN:389,389,_ZN57ResultIntegrationTest_IfPhysAddressStringContainsHex_TestC2Ev
FN:389,389,_ZN57ResultIntegrationTest_IfPhysAddressStringContainsHex_TestD0Ev
FN:389,389,_ZN57ResultIntegrationTest_IfPhysAddressStringContainsHex_TestD2Ev
FN:39,39,_ZN35ResultTest_NegativeIntegerTest_Test8TestBodyEv
FN:39,39,_ZN35ResultTest_NegativeIntegerTest_TestC2Ev
FN:39,39,_ZN35ResultTest_NegativeIntegerTest_TestD0Ev
FN:39,39,_ZN35ResultTest_NegativeIntegerTest_TestD2Ev
FN:401,404,_ZN55ResultIntegrationTest_IfAdminStatusIntegerWithText_Test8TestBodyEv
FN:401,404,_ZN55ResultIntegrationTest_IfAdminStatusIntegerWithText_TestC2Ev
FN:401,404,_ZN55ResultIntegrationTest_IfAdminStatusIntegerWithText_TestD0Ev
FN:401,404,_ZN55ResultIntegrationTest_IfAdminStatusIntegerWithText_TestD2Ev
FN:406,410,_ZN46ResultIntegrationTest_IfInOctetsCounter32_Test8TestBodyEv
FN:406,410,_ZN46ResultIntegrationTest_IfInOctetsCounter32_TestC2Ev
FN:406,410,_ZN46ResultIntegrationTest_IfInOctetsCounter32_TestD0Ev
FN:406,410,_ZN46ResultIntegrationTest_IfInOctetsCounter32_TestD2Ev
FN:412,417,_ZN61ResultIntegrationTest_IpSystemStatsHCInReceivesCounter64_Test8TestBodyEv
FN:412,417,_ZN61ResultIntegrationTest_IpSystemStatsHCInReceivesCounter64_TestC2Ev
FN:412,417,_ZN61ResultIntegrationTest_IpSystemStatsHCInReceivesCounter64_TestD0Ev
FN:412,417,_ZN61ResultIntegrationTest_IpSystemStatsHCInReceivesCounter64_TestD2Ev
FN:419,424,_ZN45ResultIntegrationTest_IpAddressIpAddress_Test8TestBodyEv
FN:419,424,_ZN45ResultIntegrationTest_IpAddressIpAddress_TestC2Ev
FN:419,424,_ZN45ResultIntegrationTest_IpAddressIpAddress_TestD0Ev
FN:419,424,_ZN45ResultIntegrationTest_IpAddressIpAddress_TestD2Ev
FN:426,429,_ZN52ResultIntegrationTest_TcpMaxConnNegativeInteger_Test8TestBodyEv
FN:426,429,_ZN52ResultIntegrationTest_TcpMaxConnNegativeInteger_TestC2Ev
FN:426,429,_ZN52ResultIntegrationTest_TcpMaxConnNegativeInteger_TestD0Ev
FN:426,429,_ZN52ResultIntegrationTest_TcpMaxConnNegativeInteger_TestD2Ev
FN:431,437,_ZN45ResultIntegrationTest_HrSystemDateString_Test8TestBodyEv
FN:431,437,_ZN45ResultIntegrationTest_HrSystemDateString_TestC2Ev
FN:431,437,_ZN45ResultIntegrationTest_HrSystemDateString_TestD0Ev
FN:431,437,_ZN45ResultIntegrationTest_HrSystemDateString_TestD2Ev
FN:439,443,_ZN46ResultIntegrationTest_HrMemorySizeInteger_Test8TestBodyEv
FN:439,443,_ZN46ResultIntegrationTest_HrMemorySizeInteger_TestC2Ev
FN:439,443,_ZN46ResultIntegrationTest_HrMemorySizeInteger_TestD0Ev
FN:439,443,_ZN46ResultIntegrationTest_HrMemorySizeInteger_TestD2Ev
FN:445,445,_ZN66ResultIntegrationTest_HrStorageAllocationUnitsIntegerWithUnit_Test8TestBodyEv
FN:445,445,_ZN66ResultIntegrationTest_HrStorageAllocationUnitsIntegerWithUnit_TestC2Ev
FN:445,445,_ZN66ResultIntegrationTest_HrStorageAllocationUnitsIntegerWithUnit_TestD0Ev
FN:445,445,_ZN66ResultIntegrationTest_HrStorageAllocationUnitsIntegerWithUnit_TestD2Ev
FN:453,453,_ZN56ResultIntegrationTest_HrDeviceStatusIntegerWithText_Test8TestBodyEv
FN:453,453,_ZN56ResultIntegrationTest_HrDeviceStatusIntegerWithText_TestC2Ev
FN:453,453,_ZN56ResultIntegrationTest_HrDeviceStatusIntegerWithText_TestD0Ev
FN:453,453,_ZN56ResultIntegrationTest_HrDeviceStatusIntegerWithText_TestD2Ev
FN:460,460,_ZN52ResultIntegrationTest_HrFSAccessIntegerWithText_Test8TestBodyEv
FN:460,460,_ZN52ResultIntegrationTest_HrFSAccessIntegerWithText_TestC2Ev
FN:460,460,_ZN52ResultIntegrationTest_HrFSAccessIntegerWithText_TestD0Ev
FN:460,460,_ZN52ResultIntegrationTest_HrFSAccessIntegerWithText_TestD2Ev
FN:466,466,_ZN62ResultIntegrationTest_IpAddressStorageTypeIntegerWithText_Test8TestBodyEv
FN:466,466,_ZN62ResultIntegrationTest_IpAddressStorageTypeIntegerWithText_TestC2Ev
FN:466,466,_ZN62ResultIntegrationTest_IpAddressStorageTypeIntegerWithText_TestD0Ev
FN:466,466,_ZN62ResultIntegrationTest_IpAddressStorageTypeIntegerWithText_TestD2Ev
FN:474,474,_ZN66ResultIntegrationTest_IpSystemStatsRefreshRateGauge32WithUnit_Test8TestBodyEv
FN:474,474,_ZN66ResultIntegrationTest_IpSystemStatsRefreshRateGauge32WithUnit_TestC2Ev
FN:474,474,_ZN66ResultIntegrationTest_IpSystemStatsRefreshRateGauge32WithUnit_TestD0Ev
FN:474,474,_ZN66ResultIntegrationTest_IpSystemStatsRefreshRateGauge32WithUnit_TestD2Ev
FN:482,482,_ZN54ResultIntegrationTest_IcmpMsgStatsInPktsCounter32_Test8TestBodyEv
FN:482,482,_ZN54ResultIntegrationTest_IcmpMsgStatsInPktsCounter32_TestC2Ev
FN:482,482,_ZN54ResultIntegrationTest_IcmpMsgStatsInPktsCounter32_TestD0Ev
FN:482,482,_ZN54ResultIntegrationTest_IcmpMsgStatsInPktsCounter32_TestD2Ev
FN:488,488,_ZN57ResultIntegrationTest_TcpRtoAlgorithmIntegerWithText_Test8TestBodyEv
FN:488,488,_ZN57ResultIntegrationTest_TcpRtoAlgorithmIntegerWithText_TestC2Ev
FN:488,488,_ZN57ResultIntegrationTest_TcpRtoAlgorithmIntegerWithText_TestD0Ev
FN:488,488,_ZN57ResultIntegrationTest_TcpRtoAlgorithmIntegerWithText_TestD2Ev
FN:494,498,_ZN63ResultIntegrationTest_SnmpEnableAuthenTrapsIntegerWithText_Test8TestBodyEv
FN:494,498,_ZN63ResultIntegrationTest_SnmpEnableAuthenTrapsIntegerWithText_TestC2Ev
FN:494,498,_ZN63ResultIntegrationTest_SnmpEnableAuthenTrapsIntegerWithText_TestD0Ev
FN:494,498,_ZN63ResultIntegrationTest_SnmpEnableAuthenTrapsIntegerWithText_TestD2Ev
FN:5,5,_ZN31ResultTest_BasicResultTest_Test8TestBodyEv
FN:5,5,_ZN31ResultTest_BasicResultTest_TestC2Ev
FN:5,5,_ZN31ResultTest_BasicResultTest_TestD0Ev
FN:5,5,_ZN31ResultTest_BasicResultTest_TestD2Ev
FN:50,59,_ZN30ResultTest_EmptyValueTest_Test8TestBodyEv
FN:50,59,_ZN30ResultTest_EmptyValueTest_TestC2Ev
FN:50,59,_ZN30ResultTest_EmptyValueTest_TestD0Ev
FN:50,59,_ZN30ResultTest_EmptyValueTest_TestD2Ev
FN:500,510,_ZN72ResultIntegrationTest_HrSystemInitialLoadParametersStringWithQuotes_Test8TestBodyEv
FN:500,510,_ZN72ResultIntegrationTest_HrSystemInitialLoadParametersStringWithQuotes_TestC2Ev
FN:500,510,_ZN72ResultIntegrationTest_HrSystemInitialLoadParametersStringWithQuotes_TestD0Ev
FN:500,510,_ZN72ResultIntegrationTest_HrSystemInitialLoadParametersStringWithQuotes_TestD2Ev
FN:512,512,_ZN42ResultIntegrationTest_MissingDatatype_Test8TestBodyEv
FN:512,512,_ZN42ResultIntegrationTest_MissingDatatype_TestC2Ev
FN:512,512,_ZN42ResultIntegrationTest_MissingDatatype_TestD0Ev
FN:512,512,_ZN42ResultIntegrationTest_MissingDatatype_TestD2Ev
FN:524,524,_ZN48ResultIntegrationTest_OctetStringConversion_Test8TestBodyEv
FN:524,524,_ZN48ResultIntegrationTest_OctetStringConversion_TestC2Ev
FN:524,524,_ZN48ResultIntegrationTest_OctetStringConversion_TestD0Ev
FN:524,524,_ZN48ResultIntegrationTest_OctetStringConversion_TestD2Ev
FN:61,91,_ZN38ResultTest_AssignmentOperatorTest_Test8TestBodyEv
FN:61,91,_ZN38ResultTest_AssignmentOperatorTest_TestC2Ev
FN:61,91,_ZN38ResultTest_AssignmentOperatorTest_TestD0Ev
FN:61,91,_ZN38ResultTest_AssignmentOperatorTest_TestD2Ev
FN:93,93,_ZN32ResultTest_MoveOperatorTest_Test8TestBodyEv
FN:93,93,_ZN32ResultTest_MoveOperatorTest_TestC2Ev
FN:93,93,_ZN32ResultTest_MoveOperatorTest_TestD0Ev
FN:93,93,_ZN32ResultTest_MoveOperatorTest_TestD2Ev
FNDA:1,_ZN35ResultTest_VectorOfResultsTest_Test8TestBodyEv
FNDA:1,_ZN35ResultTest_VectorOfResultsTest_TestC2Ev
FNDA:1,_ZN35ResultTest_VectorOfResultsTest_TestD0Ev
FNDA:1,_ZN35ResultTest_VectorOfResultsTest_TestD2Ev
FNDA:24,_Z20testResultConversionRKNSt7__cxx1112basic_stringIcSt11char_traitsIcESaIcEEES6_S6_S6_S6_RKSt7variantIJijmdS4_St6vectorIhSaIhEEEE
FNDA:6,_ZZ20testResultConversionRKNSt7__cxx1112basic_stringIcSt11char_traitsIcESaIcEEES6_S6_S6_S6_RKSt7variantIJijmdS4_St6vectorIhSaIhEEEEENKUlOT_E_clIRS4_EEDaSF_
FNDA:2,_ZZ20testResultConversionRKNSt7__cxx1112basic_stringIcSt11char_traitsIcESaIcEEES6_S6_S6_S6_RKSt7variantIJijmdS4_St6vectorIhSaIhEEEEENKUlOT_E_clIRSA_EEDaSF_
FNDA:0,_ZZ20testResultConversionRKNSt7__cxx1112basic_stringIcSt11char_traitsIcESaIcEEES6_S6_S6_S6_RKSt7variantIJijmdS4_St6vectorIhSaIhEEEEENKUlOT_E_clIRdEEDaSF_
FNDA:10,_ZZ20testResultConversionRKNSt7__cxx1112basic_stringIcSt11char_traitsIcESaIcEEES6_S6_S6_S6_RKSt7variantIJijmdS4_St6vectorIhSaIhEEEEENKUlOT_E_clIRiEEDaSF_
FNDA:5,_ZZ20testResultConversionRKNSt7__cxx1112basic_stringIcSt11char_traitsIcESaIcEEES6_S6_S6_S6_RKSt7variantIJijmdS4_St6vectorIhSaIhEEEEENKUlOT_E_clIRjEEDaSF_
FNDA:1,_ZZ20testResultConversionRKNSt7__cxx1112basic_stringIcSt11char_traitsIcESaIcEEES6_S6_S6_S6_RKSt7variantIJijmdS4_St6vectorIhSaIhEEEEENKUlOT_E_clIRmEEDaSF_
FNDA:1,_ZN31ResultTest_EmptyFieldsTest_Test8TestBodyEv
FNDA:1,_ZN31ResultTest_EmptyFieldsTest_TestC2Ev
FNDA:1,_ZN31ResultTest_EmptyFieldsTest_TestD0Ev
FNDA:1,_ZN31ResultTest_EmptyFieldsTest_TestD2Ev
FNDA:1,_ZN44ResultConvertedValueTest_HandlesInteger_Test8TestBodyEv
FNDA:1,_ZN44ResultConvertedValueTest_HandlesInteger_TestC2Ev
FNDA:1,_ZN44ResultConvertedValueTest_HandlesInteger_TestD0Ev
FNDA:1,_ZN44ResultConvertedValueTest_HandlesInteger_TestD2Ev
FNDA:1,_ZN46ResultConvertedValueTest_HandlesCounter32_Test8TestBodyEv
FNDA:1,_ZN46ResultConvertedValueTest_HandlesCounter32_TestC2Ev
FNDA:1,_ZN46ResultConvertedValueTest_HandlesCounter32_TestD0Ev
FNDA:1,_ZN46ResultConvertedValueTest_HandlesCounter32_TestD2Ev
FNDA:1,_ZN46ResultConvertedValueTest_HandlesCounter64_Test8TestBodyEv
FNDA:1,_ZN46ResultConvertedValueTest_HandlesCounter64_TestC2Ev
FNDA:1,_ZN46ResultConvertedValueTest_HandlesCounter64_TestD0Ev
FNDA:1,_ZN46ResultConvertedValueTest_HandlesCounter64_TestD2Ev
FNDA:1,_ZN46ResultConvertedValueTest_HandlesTimeticks_Test8TestBodyEv
FNDA:1,_ZN46ResultConvertedValueTest_HandlesTimeticks_TestC2Ev
FNDA:1,_ZN46ResultConvertedValueTest_HandlesTimeticks_TestD0Ev
FNDA:1,_ZN46ResultConvertedValueTest_HandlesTimeticks_TestD2Ev
FNDA:1,_ZN55ResultConvertedValueTest_HandlesTimeticksAsInteger_Test8TestBodyEv
FNDA:1,_ZN55ResultConvertedValueTest_HandlesTimeticksAsInteger_TestC2Ev
FNDA:1,_ZN55ResultConvertedValueTest_HandlesTimeticksAsInteger_TestD0Ev
FNDA:1,_ZN55ResultConvertedValueTest_HandlesTimeticksAsInteger_TestD2Ev
FNDA:1,_ZN44ResultConvertedValueTest_HandlesGauge32_Test8TestBodyEv
FNDA:1,_ZN44ResultConvertedValueTest_HandlesGauge32_TestC2Ev
FNDA:1,_ZN44ResultConvertedValueTest_HandlesGauge32_TestD0Ev
FNDA:1,_ZN44ResultConvertedValueTest_HandlesGauge32_TestD2Ev
FNDA:1,_ZN46ResultConvertedValueTest_HandlesHexString_Test8TestBodyEv
FNDA:1,_ZN46ResultConvertedValueTest_HandlesHexString_TestC2Ev
FNDA:1,_ZN46ResultConvertedValueTest_HandlesHexString_TestD0Ev
FNDA:1,_ZN46ResultConvertedValueTest_HandlesHexString_TestD2Ev
FNDA:1,_ZN43ResultConvertedValueTest_HandlesString_Test8TestBodyEv
FNDA:1,_ZN43ResultConvertedValueTest_HandlesString_TestC2Ev
FNDA:1,_ZN43ResultConvertedValueTest_HandlesString_TestD0Ev
FNDA:1,_ZN43ResultConvertedValueTest_HandlesString_TestD2Ev
FNDA:1,_ZN40ResultConvertedValueTest_HandlesOid_Test8TestBodyEv
FNDA:1,_ZN40ResultConvertedValueTest_HandlesOid_TestC2Ev
FNDA:1,_ZN40ResultConvertedValueTest_HandlesOid_TestD0Ev
FNDA:1,_ZN40ResultConvertedValueTest_HandlesOid_TestD2Ev
FNDA:1,_ZN46ResultConvertedValueTest_HandlesIpAddress_Test8TestBodyEv
FNDA:1,_ZN46ResultConvertedValueTest_HandlesIpAddress_TestC2Ev
FNDA:1,_ZN46ResultConvertedValueTest_HandlesIpAddress_TestD0Ev
FNDA:1,_ZN46ResultConvertedValueTest_HandlesIpAddress_TestD2Ev
FNDA:1,_ZN51ResultConvertedValueTest_HandlesInvalidInteger_Test8TestBodyEv
FNDA:1,_ZN51ResultConvertedValueTest_HandlesInvalidInteger_TestC2Ev
FNDA:1,_ZN51ResultConvertedValueTest_HandlesInvalidInteger_TestD0Ev
FNDA:1,_ZN51ResultConvertedValueTest_HandlesInvalidInteger_TestD2Ev
FNDA:1,_ZN50ResultConvertedValueTest_HandlesZeroTimeticks_Test8TestBodyEv
FNDA:1,_ZN50ResultConvertedValueTest_HandlesZeroTimeticks_TestC2Ev
FNDA:1,_ZN50ResultConvertedValueTest_HandlesZeroTimeticks_TestD0Ev
FNDA:1,_ZN50ResultConvertedValueTest_HandlesZeroTimeticks_TestD2Ev
FNDA:1,_ZN58ResultConvertedValueTest_HandlesNegativeIntegerString_Test8TestBodyEv
FNDA:1,_ZN58ResultConvertedValueTest_HandlesNegativeIntegerString_TestC2Ev
FNDA:1,_ZN58ResultConvertedValueTest_HandlesNegativeIntegerString_TestD0Ev
FNDA:1,_ZN58ResultConvertedValueTest_HandlesNegativeIntegerString_TestD2Ev
FNDA:1,_ZN52ResultConvertedValueTest_HandlesIntegerWithText_Test8TestBodyEv
FNDA:1,_ZN52ResultConvertedValueTest_HandlesIntegerWithText_TestC2Ev
FNDA:1,_ZN52ResultConvertedValueTest_HandlesIntegerWithText_TestD0Ev
FNDA:1,_ZN52ResultConvertedValueTest_HandlesIntegerWithText_TestD2Ev
FNDA:1,_ZN57ResultConvertedValueTest_HandlesIntegerWithOtherText_Test8TestBodyEv
FNDA:1,_ZN57ResultConvertedValueTest_HandlesIntegerWithOtherText_TestC2Ev
FNDA:1,_ZN57ResultConvertedValueTest_HandlesIntegerWithOtherText_TestD0Ev
FNDA:1,_ZN57ResultConvertedValueTest_HandlesIntegerWithOtherText_TestD2Ev
FNDA:1,_ZN51ResultConvertedValueTest_HandlesNetworkAddress_Test8TestBodyEv
FNDA:1,_ZN51ResultConvertedValueTest_HandlesNetworkAddress_TestC2Ev
FNDA:1,_ZN51ResultConvertedValueTest_HandlesNetworkAddress_TestD0Ev
FNDA:1,_ZN51ResultConvertedValueTest_HandlesNetworkAddress_TestD2Ev
FNDA:1,_ZN48ResultConvertedValueTest_HandlesUnknownType_Test8TestBodyEv
FNDA:1,_ZN48ResultConvertedValueTest_HandlesUnknownType_TestC2Ev
FNDA:1,_ZN48ResultConvertedValueTest_HandlesUnknownType_TestD0Ev
FNDA:1,_ZN48ResultConvertedValueTest_HandlesUnknownType_TestD2Ev
FNDA:1,_ZN62ResultConvertedValueTest_HandlesEmptyValueWithNumericType_Test8TestBodyEv
FNDA:1,_ZN62ResultConvertedValueTest_HandlesEmptyValueWithNumericType_TestC2Ev
FNDA:1,_ZN62ResultConvertedValueTest_HandlesEmptyValueWithNumericType_TestD0Ev
FNDA:1,_ZN62ResultConvertedValueTest_HandlesEmptyValueWithNumericType_TestD2Ev
FNDA:1,_ZN37ResultTest_SpecialCharactersTest_Test8TestBodyEv
FNDA:1,_ZN37ResultTest_SpecialCharactersTest_TestC2Ev
FNDA:1,_ZN37ResultTest_SpecialCharactersTest_TestD0Ev
FNDA:1,_ZN37ResultTest_SpecialCharactersTest_TestD2Ev
FNDA:1,_ZN60ResultConvertedValueTest_HandlesEmptyValueWithHexString_Test8TestBodyEv
FNDA:1,_ZN60ResultConvertedValueTest_HandlesEmptyValueWithHexString_TestC2Ev
FNDA:1,_ZN60ResultConvertedValueTest_HandlesEmptyValueWithHexString_TestD0Ev
FNDA:1,_ZN60ResultConvertedValueTest_HandlesEmptyValueWithHexString_TestD2Ev
FNDA:1,_ZN57ResultConvertedValueTest_HandlesEmptyValueWithString_Test8TestBodyEv
FNDA:1,_ZN57ResultConvertedValueTest_HandlesEmptyValueWithString_TestC2Ev
FNDA:1,_ZN57ResultConvertedValueTest_HandlesEmptyValueWithString_TestD0Ev
FNDA:1,_ZN57ResultConvertedValueTest_HandlesEmptyValueWithString_TestD2Ev
FNDA:1,_ZN60ResultConvertedValueTest_HandlesOidWithValueZeroDotZero_Test8TestBodyEv
FNDA:1,_ZN60ResultConvertedValueTest_HandlesOidWithValueZeroDotZero_TestC2Ev
FNDA:1,_ZN60ResultConvertedValueTest_HandlesOidWithValueZeroDotZero_TestD0Ev
FNDA:1,_ZN60ResultConvertedValueTest_HandlesOidWithValueZeroDotZero_TestD2Ev
FNDA:1,_ZN52ResultConvertedValueTest_HandlesGauge32WithUnit_Test8TestBodyEv
FNDA:1,_ZN52ResultConvertedValueTest_HandlesGauge32WithUnit_TestC2Ev
FNDA:1,_ZN52ResultConvertedValueTest_HandlesGauge32WithUnit_TestD0Ev
FNDA:1,_ZN52ResultConvertedValueTest_HandlesGauge32WithUnit_TestD2Ev
FNDA:1,_ZN50ResultConvertedValueTest_HandlesZeroCounter32_Test8TestBodyEv
FNDA:1,_ZN50ResultConvertedValueTest_HandlesZeroCounter32_TestC2Ev
FNDA:1,_ZN50ResultConvertedValueTest_HandlesZeroCounter32_TestD0Ev
FNDA:1,_ZN50ResultConvertedValueTest_HandlesZeroCounter32_TestD2Ev
FNDA:1,_ZN50ResultConvertedValueTest_HandlesZeroCounter64_Test8TestBodyEv
FNDA:1,_ZN50ResultConvertedValueTest_HandlesZeroCounter64_TestC2Ev
FNDA:1,_ZN50ResultConvertedValueTest_HandlesZeroCounter64_TestD0Ev
FNDA:1,_ZN50ResultConvertedValueTest_HandlesZeroCounter64_TestD2Ev
FNDA:1,_ZN59ResultConvertedValueTest_HandlesMalformedHexCharacters_Test8TestBodyEv
FNDA:1,_ZN59ResultConvertedValueTest_HandlesMalformedHexCharacters_TestC2Ev
FNDA:1,_ZN59ResultConvertedValueTest_HandlesMalformedHexCharacters_TestD0Ev
FNDA:1,_ZN59ResultConvertedValueTest_HandlesMalformedHexCharacters_TestD2Ev
FNDA:1,_ZN58ResultConvertedValueTest_HandlesOctetStringConversion_Test8TestBodyEv
FNDA:1,_ZN58ResultConvertedValueTest_HandlesOctetStringConversion_TestC2Ev
FNDA:1,_ZN58ResultConvertedValueTest_HandlesOctetStringConversion_TestD0Ev
FNDA:1,_ZN58ResultConvertedValueTest_HandlesOctetStringConversion_TestD2Ev
FNDA:1,_ZN61ResultConvertedValueTest_HandlesIpAddressConversionError_Test8TestBodyEv
FNDA:1,_ZN61ResultConvertedValueTest_HandlesIpAddressConversionError_TestC2Ev
FNDA:1,_ZN61ResultConvertedValueTest_HandlesIpAddressConversionError_TestD0Ev
FNDA:1,_ZN61ResultConvertedValueTest_HandlesIpAddressConversionError_TestD2Ev
FNDA:1,_ZN42ResultConvertedValueTest_HandlesObjID_Test8TestBodyEv
FNDA:1,_ZN42ResultConvertedValueTest_HandlesObjID_TestC2Ev
FNDA:1,_ZN42ResultConvertedValueTest_HandlesObjID_TestD0Ev
FNDA:1,_ZN42ResultConvertedValueTest_HandlesObjID_TestD2Ev
FNDA:1,_ZN45ResultConvertedValueTest_HandlesNullType_Test8TestBodyEv
FNDA:1,_ZN45ResultConvertedValueTest_HandlesNullType_TestC2Ev
FNDA:1,_ZN45ResultConvertedValueTest_HandlesNullType_TestD0Ev
FNDA:1,_ZN45ResultConvertedValueTest_HandlesNullType_TestD2Ev
FNDA:1,_ZN46ResultConvertedValueTest_HandlesOtherType_Test8TestBodyEv
FNDA:1,_ZN46ResultConvertedValueTest_HandlesOtherType_TestC2Ev
FNDA:1,_ZN46ResultConvertedValueTest_HandlesOtherType_TestD0Ev
FNDA:1,_ZN46ResultConvertedValueTest_HandlesOtherType_TestD2Ev
FNDA:1,_ZN35ResultIntegrationTest_SysDescr_Test8TestBodyEv
FNDA:1,_ZN35ResultIntegrationTest_SysDescr_TestC2Ev
FNDA:1,_ZN35ResultIntegrationTest_SysDescr_TestD0Ev
FNDA:1,_ZN35ResultIntegrationTest_SysDescr_TestD2Ev
FNDA:1,_ZN38ResultIntegrationTest_SysObjectID_Test8TestBodyEv
FNDA:1,_ZN38ResultIntegrationTest_SysObjectID_TestC2Ev
FNDA:1,_ZN38ResultIntegrationTest_SysObjectID_TestD0Ev
FNDA:1,_ZN38ResultIntegrationTest_SysObjectID_TestD2Ev
FNDA:1,_ZN44ResultIntegrationTest_SysUpTimeInstance_Test8TestBodyEv
FNDA:1,_ZN44ResultIntegrationTest_SysUpTimeInstance_TestC2Ev
FNDA:1,_ZN44ResultIntegrationTest_SysUpTimeInstance_TestD0Ev
FNDA:1,_ZN44ResultIntegrationTest_SysUpTimeInstance_TestD2Ev
FNDA:1,_ZN35ResultIntegrationTest_IfNumber_Test8TestBodyEv
FNDA:1,_ZN35ResultIntegrationTest_IfNumber_TestC2Ev
FNDA:1,_ZN35ResultIntegrationTest_IfNumber_TestD0Ev
FNDA:1,_ZN35ResultIntegrationTest_IfNumber_TestD2Ev
FNDA:1,_ZN41ResultIntegrationTest_IfSpeedGauge32_Test8TestBodyEv
FNDA:1,_ZN41ResultIntegrationTest_IfSpeedGauge32_TestC2Ev
FNDA:1,_ZN41ResultIntegrationTest_IfSpeedGauge32_TestD0Ev
FNDA:1,_ZN41ResultIntegrationTest_IfSpeedGauge32_TestD2Ev
FNDA:1,_ZN57ResultIntegrationTest_IfPhysAddressStringContainsHex_Test8TestBodyEv
FNDA:1,_ZN57ResultIntegrationTest_IfPhysAddressStringContainsHex_TestC2Ev
FNDA:1,_ZN57ResultIntegrationTest_IfPhysAddressStringContainsHex_TestD0Ev
FNDA:1,_ZN57ResultIntegrationTest_IfPhysAddressStringContainsHex_TestD2Ev
FNDA:1,_ZN35ResultTest_NegativeIntegerTest_Test8TestBodyEv
FNDA:1,_ZN35ResultTest_NegativeIntegerTest_TestC2Ev
FNDA:1,_ZN35ResultTest_NegativeIntegerTest_TestD0Ev
FNDA:1,_ZN35ResultTest_NegativeIntegerTest_TestD2Ev
FNDA:1,_ZN55ResultIntegrationTest_IfAdminStatusIntegerWithText_Test8TestBodyEv
FNDA:1,_ZN55ResultIntegrationTest_IfAdminStatusIntegerWithText_TestC2Ev
FNDA:1,_ZN55ResultIntegrationTest_IfAdminStatusIntegerWithText_TestD0Ev
FNDA:1,_ZN55ResultIntegrationTest_IfAdminStatusIntegerWithText_TestD2Ev
FNDA:1,_ZN46ResultIntegrationTest_IfInOctetsCounter32_Test8TestBodyEv
FNDA:1,_ZN46ResultIntegrationTest_IfInOctetsCounter32_TestC2Ev
FNDA:1,_ZN46ResultIntegrationTest_IfInOctetsCounter32_TestD0Ev
FNDA:1,_ZN46ResultIntegrationTest_IfInOctetsCounter32_TestD2Ev
FNDA:1,_ZN61ResultIntegrationTest_IpSystemStatsHCInReceivesCounter64_Test8TestBodyEv
FNDA:1,_ZN61ResultIntegrationTest_IpSystemStatsHCInReceivesCounter64_TestC2Ev
FNDA:1,_ZN61ResultIntegrationTest_IpSystemStatsHCInReceivesCounter64_TestD0Ev
FNDA:1,_ZN61ResultIntegrationTest_IpSystemStatsHCInReceivesCounter64_TestD2Ev
FNDA:1,_ZN45ResultIntegrationTest_IpAddressIpAddress_Test8TestBodyEv
FNDA:1,_ZN45ResultIntegrationTest_IpAddressIpAddress_TestC2Ev
FNDA:1,_ZN45ResultIntegrationTest_IpAddressIpAddress_TestD0Ev
FNDA:1,_ZN45ResultIntegrationTest_IpAddressIpAddress_TestD2Ev
FNDA:1,_ZN52ResultIntegrationTest_TcpMaxConnNegativeInteger_Test8TestBodyEv
FNDA:1,_ZN52ResultIntegrationTest_TcpMaxConnNegativeInteger_TestC2Ev
FNDA:1,_ZN52ResultIntegrationTest_TcpMaxConnNegativeInteger_TestD0Ev
FNDA:1,_ZN52ResultIntegrationTest_TcpMaxConnNegativeInteger_TestD2Ev
FNDA:1,_ZN45ResultIntegrationTest_HrSystemDateString_Test8TestBodyEv
FNDA:1,_ZN45ResultIntegrationTest_HrSystemDateString_TestC2Ev
FNDA:1,_ZN45ResultIntegrationTest_HrSystemDateString_TestD0Ev
FNDA:1,_ZN45ResultIntegrationTest_HrSystemDateString_TestD2Ev
FNDA:1,_ZN46ResultIntegrationTest_HrMemorySizeInteger_Test8TestBodyEv
FNDA:1,_ZN46ResultIntegrationTest_HrMemorySizeInteger_TestC2Ev
FNDA:1,_ZN46ResultIntegrationTest_HrMemorySizeInteger_TestD0Ev
FNDA:1,_ZN46ResultIntegrationTest_HrMemorySizeInteger_TestD2Ev
FNDA:1,_ZN66ResultIntegrationTest_HrStorageAllocationUnitsIntegerWithUnit_Test8TestBodyEv
FNDA:1,_ZN66ResultIntegrationTest_HrStorageAllocationUnitsIntegerWithUnit_TestC2Ev
FNDA:1,_ZN66ResultIntegrationTest_HrStorageAllocationUnitsIntegerWithUnit_TestD0Ev
FNDA:1,_ZN66ResultIntegrationTest_HrStorageAllocationUnitsIntegerWithUnit_TestD2Ev
FNDA:1,_ZN56ResultIntegrationTest_HrDeviceStatusIntegerWithText_Test8TestBodyEv
FNDA:1,_ZN56ResultIntegrationTest_HrDeviceStatusIntegerWithText_TestC2Ev
FNDA:1,_ZN56ResultIntegrationTest_HrDeviceStatusIntegerWithText_TestD0Ev
FNDA:1,_ZN56ResultIntegrationTest_HrDeviceStatusIntegerWithText_TestD2Ev
FNDA:1,_ZN52ResultIntegrationTest_HrFSAccessIntegerWithText_Test8TestBodyEv
FNDA:1,_ZN52ResultIntegrationTest_HrFSAccessIntegerWithText_TestC2Ev
FNDA:1,_ZN52ResultIntegrationTest_HrFSAccessIntegerWithText_TestD0Ev
FNDA:1,_ZN52ResultIntegrationTest_HrFSAccessIntegerWithText_TestD2Ev
FNDA:1,_ZN62ResultIntegrationTest_IpAddressStorageTypeIntegerWithText_Test8TestBodyEv
FNDA:1,_ZN62ResultIntegrationTest_IpAddressStorageTypeIntegerWithText_TestC2Ev
FNDA:1,_ZN62ResultIntegrationTest_IpAddressStorageTypeIntegerWithText_TestD0Ev
FNDA:1,_ZN62ResultIntegrationTest_IpAddressStorageTypeIntegerWithText_TestD2Ev
FNDA:1,_ZN66ResultIntegrationTest_IpSystemStatsRefreshRateGauge32WithUnit_Test8TestBodyEv
FNDA:1,_ZN66ResultIntegrationTest_IpSystemStatsRefreshRateGauge32WithUnit_TestC2Ev
FNDA:1,_ZN66ResultIntegrationTest_IpSystemStatsRefreshRateGauge32WithUnit_TestD0Ev
FNDA:1,_ZN66ResultIntegrationTest_IpSystemStatsRefreshRateGauge32WithUnit_TestD2Ev
FNDA:1,_ZN54ResultIntegrationTest_IcmpMsgStatsInPktsCounter32_Test8TestBodyEv
FNDA:1,_ZN54ResultIntegrationTest_IcmpMsgStatsInPktsCounter32_TestC2Ev
FNDA:1,_ZN54ResultIntegrationTest_IcmpMsgStatsInPktsCounter32_TestD0Ev
FNDA:1,_ZN54ResultIntegrationTest_IcmpMsgStatsInPktsCounter32_TestD2Ev
FNDA:1,_ZN57ResultIntegrationTest_TcpRtoAlgorithmIntegerWithText_Test8TestBodyEv
FNDA:1,_ZN57ResultIntegrationTest_TcpRtoAlgorithmIntegerWithText_TestC2Ev
FNDA:1,_ZN57ResultIntegrationTest_TcpRtoAlgorithmIntegerWithText_TestD0Ev
FNDA:1,_ZN57ResultIntegrationTest_TcpRtoAlgorithmIntegerWithText_TestD2Ev
FNDA:1,_ZN63ResultIntegrationTest_SnmpEnableAuthenTrapsIntegerWithText_Test8TestBodyEv
FNDA:1,_ZN63ResultIntegrationTest_SnmpEnableAuthenTrapsIntegerWithText_TestC2Ev
FNDA:1,_ZN63ResultIntegrationTest_SnmpEnableAuthenTrapsIntegerWithText_TestD0Ev
FNDA:1,_ZN63ResultIntegrationTest_SnmpEnableAuthenTrapsIntegerWithText_TestD2Ev
FNDA:1,_ZN31ResultTest_BasicResultTest_Test8TestBodyEv
FNDA:1,_ZN31ResultTest_BasicResultTest_TestC2Ev
FNDA:1,_ZN31ResultTest_BasicResultTest_TestD0Ev
FNDA:1,_ZN31ResultTest_BasicResultTest_TestD2Ev
FNDA:1,_ZN30ResultTest_EmptyValueTest_Test8TestBodyEv
FNDA:1,_ZN30ResultTest_EmptyValueTest_TestC2Ev
FNDA:1,_ZN30ResultTest_EmptyValueTest_TestD0Ev
FNDA:1,_ZN30ResultTest_EmptyValueTest_TestD2Ev
FNDA:1,_ZN72ResultIntegrationTest_HrSystemInitialLoadParametersStringWithQuotes_Test8TestBodyEv
FNDA:1,_ZN72ResultIntegrationTest_HrSystemInitialLoadParametersStringWithQuotes_TestC2Ev
FNDA:1,_ZN72ResultIntegrationTest_HrSystemInitialLoadParametersStringWithQuotes_TestD0Ev
FNDA:1,_ZN72ResultIntegrationTest_HrSystemInitialLoadParametersStringWithQuotes_TestD2Ev
FNDA:1,_ZN42ResultIntegrationTest_MissingDatatype_Test8TestBodyEv
FNDA:1,_ZN42ResultIntegrationTest_MissingDatatype_TestC2Ev
FNDA:1,_ZN42ResultIntegrationTest_MissingDatatype_TestD0Ev
FNDA:1,_ZN42ResultIntegrationTest_MissingDatatype_TestD2Ev
FNDA:1,_ZN48ResultIntegrationTest_OctetStringConversion_Test8TestBodyEv
FNDA:1,_ZN48ResultIntegrationTest_OctetStringConversion_TestC2Ev
FNDA:1,_ZN48ResultIntegrationTest_OctetStringConversion_TestD0Ev
FNDA:1,_ZN48ResultIntegrationTest_OctetStringConversion_TestD2Ev
FNDA:1,_ZN38ResultTest_AssignmentOperatorTest_Test8TestBodyEv
FNDA:1,_ZN38ResultTest_AssignmentOperatorTest_TestC2Ev
FNDA:1,_ZN38ResultTest_AssignmentOperatorTest_TestD0Ev
FNDA:1,_ZN38ResultTest_AssignmentOperatorTest_TestD2Ev
FNDA:1,_ZN32ResultTest_MoveOperatorTest_Test8TestBodyEv
FNDA:1,_ZN32ResultTest_MoveOperatorTest_TestC2Ev
FNDA:1,_ZN32ResultTest_MoveOperatorTest_TestD0Ev
FNDA:1,_ZN32ResultTest_MoveOperatorTest_TestD2Ev
FNF:255
FNH:254
DA:5,4
DA:6,1
DA:7,1
DA:8,1
DA:9,1
DA:10,1
DA:11,1
DA:13,1
DA:14,1
DA:15,1
DA:17,4
DA:18,1
DA:19,1
DA:20,1
DA:21,1
DA:22,1
DA:23,1
DA:25,1
DA:26,1
DA:28,4
DA:29,1
DA:30,1
DA:31,1
DA:32,1
DA:33,1
DA:34,1
DA:36,1
DA:37,1
DA:39,4
DA:40,1
DA:41,1
DA:42,1
DA:43,1
DA:44,1
DA:45,1
DA:47,1
DA:48,1
DA:50,4
DA:51,1
DA:52,1
DA:53,1
DA:54,1
DA:55,1
DA:56,1
DA:58,1
DA:59,1
DA:61,4
DA:62,1
DA:63,1
DA:64,1
DA:65,1
DA:66,1
DA:67,1
DA:69,1
DA:70,1
DA:71,1
DA:74,1
DA:75,1
DA:79,1
DA:80,1
DA:81,1
DA:82,1
DA:83,1
DA:86,1
DA:87,1
DA:88,1
DA:89,1
DA:90,1
DA:91,1
DA:93,4
DA:94,1
DA:95,1
DA:96,1
DA:97,1
DA:98,1
DA:100,1
DA:101,1
DA:103,1
DA:104,1
DA:105,1
DA:106,1
DA:108,1
DA:109,1
DA:110,4
DA:111,1
DA:113,1
DA:114,1
DA:115,1
DA:116,1
DA:117,1
DA:118,1
DA:120,1
DA:121,1
DA:122,1
DA:123,1
DA:124,1
DA:125,1
DA:127,1
DA:128,1
DA:130,1
DA:131,1
DA:132,1
DA:135,1
DA:136,1
DA:137,1
DA:140,24
DA:146,24
DA:147,24
DA:148,24
DA:149,24
DA:150,24
DA:151,24
DA:154,48
DA:156,72
DA:157,24
DA:160,24
DA:161,48
DA:164,24
DA:165,24
DA:167,0
DA:171,24
DA:182,4
DA:183,4
DA:184,1
DA:185,1
DA:187,4
DA:188,4
DA:189,1
DA:190,1
DA:192,4
DA:193,4
DA:194,1
DA:195,1
DA:197,4
DA:198,4
DA:199,1
DA:200,1
DA:202,4
DA:203,4
DA:204,1
DA:205,1
DA:207,4
DA:208,4
DA:209,1
DA:210,1
DA:212,4
DA:213,4
DA:214,2
DA:215,1
DA:216,1
DA:218,4
DA:219,4
DA:220,1
DA:221,1
DA:223,4
DA:225,4
DA:226,1
DA:227,1
DA:229,4
DA:230,4
DA:231,1
DA:232,1
DA:234,4
DA:235,4
DA:237,1
DA:238,2
DA:239,1
DA:240,1
DA:244,4
DA:245,4
DA:246,1
DA:247,1
DA:249,4
DA:250,4
DA:251,1
DA:252,1
DA:254,4
DA:255,4
DA:256,1
DA:257,1
DA:259,4
DA:260,4
DA:261,1
DA:262,1
DA:264,4
DA:265,4
DA:266,1
DA:267,1
DA:269,4
DA:270,4
DA:271,1
DA:272,1
DA:274,4
DA:275,4
DA:276,1
DA:277,1
DA:278,1
DA:280,4
DA:281,4
DA:282,1
DA:283,1
DA:284,1
DA:286,4
DA:287,4
DA:288,1
DA:289,1
DA:291,4
DA:292,4
DA:293,1
DA:294,1
DA:296,4
DA:297,4
DA:298,1
DA:299,1
DA:301,4
DA:302,4
DA:303,1
DA:304,1
DA:306,4
DA:307,4
DA:308,1
DA:309,1
DA:311,4
DA:313,4
DA:314,1
DA:315,1
DA:316,1
DA:319,4
DA:320,2
DA:321,1
DA:322,2
DA:323,1
DA:326,4
DA:327,1
DA:328,1
DA:330,4
DA:331,4
DA:332,1
DA:333,1
DA:335,4
DA:336,4
DA:337,1
DA:338,1
DA:340,4
DA:341,4
DA:342,1
DA:343,1
DA:345,4
DA:346,4
DA:347,1
DA:348,1
DA:352,4
DA:353,11
DA:359,2
DA:361,1
DA:363,4
DA:364,11
DA:367,2
DA:368,1
DA:370,4
DA:371,10
DA:375,1
DA:376,1
DA:378,4
DA:379,10
DA:380,1
DA:381,1
DA:383,4
DA:384,10
DA:386,1
DA:387,1
DA:389,4
DA:390,11
DA:393,2
DA:394,11
DA:398,3
DA:399,1
DA:401,4
DA:402,10
DA:403,1
DA:404,1
DA:406,4
DA:407,10
DA:409,1
DA:410,1
DA:412,4
DA:413,10
DA:416,1
DA:417,1
DA:419,4
DA:420,11
DA:423,2
DA:424,1
DA:426,4
DA:427,10
DA:428,1
DA:429,1
DA:431,4
DA:432,11
DA:436,2
DA:437,1
DA:439,4
DA:440,10
DA:442,1
DA:443,1
DA:445,4
DA:446,10
DA:450,1
DA:451,1
DA:453,4
DA:454,10
DA:457,1
DA:458,1
DA:460,4
DA:461,10
DA:463,1
DA:464,1
DA:466,4
DA:467,10
DA:471,1
DA:472,1
DA:474,4
DA:475,10
DA:479,1
DA:480,1
DA:482,4
DA:483,10
DA:485,1
DA:486,1
DA:488,4
DA:489,10
DA:491,1
DA:492,1
DA:494,4
DA:495,10
DA:497,1
DA:498,1
DA:500,4
DA:501,11
DA:508,2
DA:510,1
DA:512,4
DA:513,1
DA:514,1
DA:515,1
DA:516,1
DA:517,1
DA:518,1
DA:520,1
DA:521,1
DA:522,1
DA:524,4
DA:526,2
DA:527,1
DA:528,9
DA:532,1
LF:356
LH:355
end_of_record
TN:
SF:/home/runner/work/ezsnmp/ezsnmp/cpp_tests/test_exceptionsbase.cpp
FN:100,100,_ZN54ExceptionsBaseTest_NoSuchInstanceErrorInheritance_Test8TestBodyEv
FN:100,100,_ZN54ExceptionsBaseTest_NoSuchInstanceErrorInheritance_TestC2Ev
FN:100,100,_ZN54ExceptionsBaseTest_NoSuchInstanceErrorInheritance_TestD0Ev
FN:100,100,_ZN54ExceptionsBaseTest_NoSuchInstanceErrorInheritance_TestD2Ev
FN:109,109,_ZN57ExceptionsBaseTest_UndeterminedTypeErrorConstruction_Test8TestBodyEv
FN:109,109,_ZN57ExceptionsBaseTest_UndeterminedTypeErrorConstruction_TestC2Ev
FN:109,109,_ZN57ExceptionsBaseTest_UndeterminedTypeErrorConstruction_TestD0Ev
FN:109,109,_ZN57ExceptionsBaseTest_UndeterminedTypeErrorConstruction_TestD2Ev
FN:11,11,_ZN48ExceptionsBaseTest_GenericErrorEmptyMessage_Test8TestBodyEv
FN:11,11,_ZN48ExceptionsBaseTest_GenericErrorEmptyMessage_TestC2Ev
FN:11,11,_ZN48ExceptionsBaseTest_GenericErrorEmptyMessage_TestD0Ev
FN:11,11,_ZN48ExceptionsBaseTest_GenericErrorEmptyMessage_TestD2Ev
FN:114,120,_ZN56ExceptionsBaseTest_UndeterminedTypeErrorInheritance_Test8TestBodyEv
FN:114,120,_ZN56ExceptionsBaseTest_UndeterminedTypeErrorInheritance_TestC2Ev
FN:114,120,_ZN56ExceptionsBaseTest_UndeterminedTypeErrorInheritance_TestD0Ev
FN:114,120,_ZN56ExceptionsBaseTest_UndeterminedTypeErrorInheritance_TestD2Ev
FN:123,123,_ZN46ExceptionsBaseTest_ParseErrorConstruction_Test8TestBodyEv
FN:123,123,_ZN46ExceptionsBaseTest_ParseErrorConstruction_TestC2Ev
FN:123,123,_ZN46ExceptionsBaseTest_ParseErrorConstruction_TestD0Ev
FN:123,123,_ZN46ExceptionsBaseTest_ParseErrorConstruction_TestD2Ev
FN:128,128,_ZN45ExceptionsBaseTest_ParseErrorInheritance_Test8TestBodyEv
FN:128,128,_ZN45ExceptionsBaseTest_ParseErrorInheritance_TestC2Ev
FN:128,128,_ZN45ExceptionsBaseTest_ParseErrorInheritance_TestD0Ev
FN:128,128,_ZN45ExceptionsBaseTest_ParseErrorInheritance_TestD2Ev
FN:137,137,_ZN47ExceptionsBaseTest_PacketErrorConstruction_Test8TestBodyEv
FN:137,137,_ZN47ExceptionsBaseTest_PacketErrorConstruction_TestC2Ev
FN:137,137,_ZN47ExceptionsBaseTest_PacketErrorConstruction_TestD0Ev
FN:137,137,_ZN47ExceptionsBaseTest_PacketErrorConstruction_TestD2Ev
FN:142,142,_ZN46ExceptionsBaseTest_PacketErrorInheritance_Test8TestBodyEv
FN:142,142,_ZN46ExceptionsBaseTest_PacketErrorInheritance_TestC2Ev
FN:142,142,_ZN46ExceptionsBaseTest_PacketErrorInheritance_TestD0Ev
FN:142,142,_ZN46ExceptionsBaseTest_PacketErrorInheritance_TestD2Ev
FN:151,151,_ZN50ExceptionsBaseTest_CatchSpecificExceptionType_Test8TestBodyEv
FN:151,151,_ZN50ExceptionsBaseTest_CatchSpecificExceptionType_TestC2Ev
FN:151,151,_ZN50ExceptionsBaseTest_CatchSpecificExceptionType_TestD0Ev
FN:151,151,_ZN50ExceptionsBaseTest_CatchSpecificExceptionType_TestD2Ev
FN:16,16,_ZN41ExceptionsBaseTest_GenericErrorThrow_Test8TestBodyEv
FN:16,16,_ZN41ExceptionsBaseTest_GenericErrorThrow_TestC2Ev
FN:16,16,_ZN41ExceptionsBaseTest_GenericErrorThrow_TestD0Ev
FN:16,16,_ZN41ExceptionsBaseTest_GenericErrorThrow_TestD2Ev
FN:163,163,_ZN40ExceptionsBaseTest_CatchAsBaseClass_Test8TestBodyEv
FN:163,163,_ZN40ExceptionsBaseTest_CatchAsBaseClass_TestC2Ev
FN:163,163,_ZN40ExceptionsBaseTest_CatchAsBaseClass_TestD0Ev
FN:163,163,_ZN40ExceptionsBaseTest_CatchAsBaseClass_TestD2Ev
FN:173,173,_ZN50ExceptionsBaseTest_SpecialCharactersInMessage_Test8TestBodyEv
FN:173,173,_ZN50ExceptionsBaseTest_SpecialCharactersInMessage_TestC2Ev
FN:173,173,_ZN50ExceptionsBaseTest_SpecialCharactersInMessage_TestD0Ev
FN:173,173,_ZN50ExceptionsBaseTest_SpecialCharactersInMessage_TestD2Ev
FN:179,183,_ZN40ExceptionsBaseTest_LongErrorMessage_Test8TestBodyEv
FN:179,183,_ZN40ExceptionsBaseTest_LongErrorMessage_TestC2Ev
FN:179,183,_ZN40ExceptionsBaseTest_LongErrorMessage_TestD0Ev
FN:179,183,_ZN40ExceptionsBaseTest_LongErrorMessage_TestD2Ev
FN:186,190,_ZN45ExceptionsBaseTest_MultilineErrorMessage_Test8TestBodyEv
FN:186,190,_ZN45ExceptionsBaseTest_MultilineErrorMessage_TestC2Ev
FN:186,190,_ZN45ExceptionsBaseTest_MultilineErrorMessage_TestD0Ev
FN:186,190,_ZN45ExceptionsBaseTest_MultilineErrorMessage_TestD2Ev
FN:25,25,_ZN51ExceptionsBaseTest_ConnectionErrorConstruction_Test8TestBodyEv
FN:25,25,_ZN51ExceptionsBaseTest_ConnectionErrorConstruction_TestC2Ev
FN:25,25,_ZN51ExceptionsBaseTest_ConnectionErrorConstruction_TestD0Ev
FN:25,25,_ZN51ExceptionsBaseTest_ConnectionErrorConstruction_TestD2Ev
FN:30,36,_ZN50ExceptionsBaseTest_ConnectionErrorInheritance_Test8TestBodyEv
FN:30,36,_ZN50ExceptionsBaseTest_ConnectionErrorInheritance_TestC2Ev
FN:30,36,_ZN50ExceptionsBaseTest_ConnectionErrorInheritance_TestD0Ev
FN:30,36,_ZN50ExceptionsBaseTest_ConnectionErrorInheritance_TestD2Ev
FN:39,39,_ZN48ExceptionsBaseTest_TimeoutErrorConstruction_Test8TestBodyEv
FN:39,39,_ZN48ExceptionsBaseTest_TimeoutErrorConstruction_TestC2Ev
FN:39,39,_ZN48ExceptionsBaseTest_TimeoutErrorConstruction_TestD0Ev
FN:39,39,_ZN48ExceptionsBaseTest_TimeoutErrorConstruction_TestD2Ev
FN:44,44,_ZN47ExceptionsBaseTest_TimeoutErrorInheritance_Test8TestBodyEv
FN:44,44,_ZN47ExceptionsBaseTest_TimeoutErrorInheritance_TestC2Ev
FN:44,44,_ZN47ExceptionsBaseTest_TimeoutErrorInheritance_TestD0Ev
FN:44,44,_ZN47ExceptionsBaseTest_TimeoutErrorInheritance_TestD2Ev
FN:53,53,_ZN56ExceptionsBaseTest_UnknownObjectIDErrorConstruction_Test8TestBodyEv
FN:53,53,_ZN56ExceptionsBaseTest_UnknownObjectIDErrorConstruction_TestC2Ev
FN:53,53,_ZN56ExceptionsBaseTest_UnknownObjectIDErrorConstruction_TestD0Ev
FN:53,53,_ZN56ExceptionsBaseTest_UnknownObjectIDErrorConstruction_TestD2Ev
FN:58,58,_ZN55ExceptionsBaseTest_UnknownObjectIDErrorInheritance_Test8TestBodyEv
FN:58,58,_ZN55ExceptionsBaseTest_UnknownObjectIDErrorInheritance_TestC2Ev
FN:58,58,_ZN55ExceptionsBaseTest_UnknownObjectIDErrorInheritance_TestD0Ev
FN:58,58,_ZN55ExceptionsBaseTest_UnknownObjectIDErrorInheritance_TestD2Ev
FN:6,6,_ZN53ExceptionsBaseTest_GenericErrorBasicConstruction_Test8TestBodyEv
FN:6,6,_ZN53ExceptionsBaseTest_GenericErrorBasicConstruction_TestC2Ev
FN:6,6,_ZN53ExceptionsBaseTest_GenericErrorBasicConstruction_TestD0Ev
FN:6,6,_ZN53ExceptionsBaseTest_GenericErrorBasicConstruction_TestD2Ev
FN:67,67,_ZN51ExceptionsBaseTest_NoSuchNameErrorConstruction_Test8TestBodyEv
FN:67,67,_ZN51ExceptionsBaseTest_NoSuchNameErrorConstruction_TestC2Ev
FN:67,67,_ZN51ExceptionsBaseTest_NoSuchNameErrorConstruction_TestD0Ev
FN:67,67,_ZN51ExceptionsBaseTest_NoSuchNameErrorConstruction_TestD2Ev
FN:72,72,_ZN50ExceptionsBaseTest_NoSuchNameErrorInheritance_Test8TestBodyEv
FN:72,72,_ZN50ExceptionsBaseTest_NoSuchNameErrorInheritance_TestC2Ev
FN:72,72,_ZN50ExceptionsBaseTest_NoSuchNameErrorInheritance_TestD0Ev
FN:72,72,_ZN50ExceptionsBaseTest_NoSuchNameErrorInheritance_TestD2Ev
FN:81,84,_ZN53ExceptionsBaseTest_NoSuchObjectErrorConstruction_Test8TestBodyEv
FN:81,84,_ZN53ExceptionsBaseTest_NoSuchObjectErrorConstruction_TestC2Ev
FN:81,84,_ZN53ExceptionsBaseTest_NoSuchObjectErrorConstruction_TestD0Ev
FN:81,84,_ZN53ExceptionsBaseTest_NoSuchObjectErrorConstruction_TestD2Ev
FN:86,86,_ZN52ExceptionsBaseTest_NoSuchObjectErrorInheritance_Test8TestBodyEv
FN:86,86,_ZN52ExceptionsBaseTest_NoSuchObjectErrorInheritance_TestC2Ev
FN:86,86,_ZN52ExceptionsBaseTest_NoSuchObjectErrorInheritance_TestD0Ev
FN:86,86,_ZN52ExceptionsBaseTest_NoSuchObjectErrorInheritance_TestD2Ev
FN:95,95,_ZN55ExceptionsBaseTest_NoSuchInstanceErrorConstruction_Test8TestBodyEv
FN:95,95,_ZN55ExceptionsBaseTest_NoSuchInstanceErrorConstruction_TestC2Ev
FN:95,95,_ZN55ExceptionsBaseTest_NoSuchInstanceErrorConstruction_TestD0Ev
FN:95,95,_ZN55ExceptionsBaseTest_NoSuchInstanceErrorConstruction_TestD2Ev
FNDA:1,_ZN54ExceptionsBaseTest_NoSuchInstanceErrorInheritance_Test8TestBodyEv
FNDA:1,_ZN54ExceptionsBaseTest_NoSuchInstanceErrorInheritance_TestC2Ev
FNDA:1,_ZN54ExceptionsBaseTest_NoSuchInstanceErrorInheritance_TestD0Ev
FNDA:1,_ZN54ExceptionsBaseTest_NoSuchInstanceErrorInheritance_TestD2Ev
FNDA:1,_ZN57ExceptionsBaseTest_UndeterminedTypeErrorConstruction_Test8TestBodyEv
FNDA:1,_ZN57ExceptionsBaseTest_UndeterminedTypeErrorConstruction_TestC2Ev
FNDA:1,_ZN57ExceptionsBaseTest_UndeterminedTypeErrorConstruction_TestD0Ev
FNDA:1,_ZN57ExceptionsBaseTest_UndeterminedTypeErrorConstruction_TestD2Ev
FNDA:1,_ZN48ExceptionsBaseTest_GenericErrorEmptyMessage_Test8TestBodyEv
FNDA:1,_ZN48ExceptionsBaseTest_GenericErrorEmptyMessage_TestC2Ev
FNDA:1,_ZN48ExceptionsBaseTest_GenericErrorEmptyMessage_TestD0Ev
FNDA:1,_ZN48ExceptionsBaseTest_GenericErrorEmptyMessage_TestD2Ev
FNDA:1,_ZN56ExceptionsBaseTest_UndeterminedTypeErrorInheritance_Test8TestBodyEv
FNDA:1,_ZN56ExceptionsBaseTest_UndeterminedTypeErrorInheritance_TestC2Ev
FNDA:1,_ZN56ExceptionsBaseTest_UndeterminedTypeErrorInheritance_TestD0Ev
FNDA:1,_ZN56ExceptionsBaseTest_UndeterminedTypeErrorInheritance_TestD2Ev
FNDA:1,_ZN46ExceptionsBaseTest_ParseErrorConstruction_Test8TestBodyEv
FNDA:1,_ZN46ExceptionsBaseTest_ParseErrorConstruction_TestC2Ev
FNDA:1,_ZN46ExceptionsBaseTest_ParseErrorConstruction_TestD0Ev
FNDA:1,_ZN46ExceptionsBaseTest_ParseErrorConstruction_TestD2Ev
FNDA:1,_ZN45ExceptionsBaseTest_ParseErrorInheritance_Test8TestBodyEv
FNDA:1,_ZN45ExceptionsBaseTest_ParseErrorInheritance_TestC2Ev
FNDA:1,_ZN45ExceptionsBaseTest_ParseErrorInheritance_TestD0Ev
FNDA:1,_ZN45ExceptionsBaseTest_ParseErrorInheritance_TestD2Ev
FNDA:1,_ZN47ExceptionsBaseTest_PacketErrorConstruction_Test8TestBodyEv
FNDA:1,_ZN47ExceptionsBaseTest_PacketErrorConstruction_TestC2Ev
FNDA:1,_ZN47ExceptionsBaseTest_PacketErrorConstruction_TestD0Ev
FNDA:1,_ZN47ExceptionsBaseTest_PacketErrorConstruction_TestD2Ev
FNDA:1,_ZN46ExceptionsBaseTest_PacketErrorInheritance_Test8TestBodyEv
FNDA:1,_ZN46ExceptionsBaseTest_PacketErrorInheritance_TestC2Ev
FNDA:1,_ZN46ExceptionsBaseTest_PacketErrorInheritance_TestD0Ev
FNDA:1,_ZN46ExceptionsBaseTest_PacketErrorInheritance_TestD2Ev
FNDA:1,_ZN50ExceptionsBaseTest_CatchSpecificExceptionType_Test8TestBodyEv
FNDA:1,_ZN50ExceptionsBaseTest_CatchSpecificExceptionType_TestC2Ev
FNDA:1,_ZN50ExceptionsBaseTest_CatchSpecificExceptionType_TestD0Ev
FNDA:1,_ZN50ExceptionsBaseTest_CatchSpecificExceptionType_TestD2Ev
FNDA:1,_ZN41ExceptionsBaseTest_GenericErrorThrow_Test8TestBodyEv
FNDA:1,_ZN41ExceptionsBaseTest_GenericErrorThrow_TestC2Ev
FNDA:1,_ZN41ExceptionsBaseTest_GenericErrorThrow_TestD0Ev
FNDA:1,_ZN41ExceptionsBaseTest_GenericErrorThrow_TestD2Ev
FNDA:1,_ZN40ExceptionsBaseTest_CatchAsBaseClass_Test8TestBodyEv
FNDA:1,_ZN40ExceptionsBaseTest_CatchAsBaseClass_TestC2Ev
FNDA:1,_ZN40ExceptionsBaseTest_CatchAsBaseClass_TestD0Ev
FNDA:1,_ZN40ExceptionsBaseTest_CatchAsBaseClass_TestD2Ev
FNDA:1,_ZN50ExceptionsBaseTest_SpecialCharactersInMessage_Test8TestBodyEv
FNDA:1,_ZN50ExceptionsBaseTest_SpecialCharactersInMessage_TestC2Ev
FNDA:1,_ZN50ExceptionsBaseTest_SpecialCharactersInMessage_TestD0Ev
FNDA:1,_ZN50ExceptionsBaseTest_SpecialCharactersInMessage_TestD2Ev
FNDA:1,_ZN40ExceptionsBaseTest_LongErrorMessage_Test8TestBodyEv
FNDA:1,_ZN40ExceptionsBaseTest_LongErrorMessage_TestC2Ev
FNDA:1,_ZN40ExceptionsBaseTest_LongErrorMessage_TestD0Ev
FNDA:1,_ZN40ExceptionsBaseTest_LongErrorMessage_TestD2Ev
FNDA:1,_ZN45ExceptionsBaseTest_MultilineErrorMessage_Test8TestBodyEv
FNDA:1,_ZN45ExceptionsBaseTest_MultilineErrorMessage_TestC2Ev
FNDA:1,_ZN45ExceptionsBaseTest_MultilineErrorMessage_TestD0Ev
FNDA:1,_ZN45ExceptionsBaseTest_MultilineErrorMessage_TestD2Ev
FNDA:1,_ZN51ExceptionsBaseTest_ConnectionErrorConstruction_Test8TestBodyEv
FNDA:1,_ZN51ExceptionsBaseTest_ConnectionErrorConstruction_TestC2Ev
FNDA:1,_ZN51ExceptionsBaseTest_ConnectionErrorConstruction_TestD0Ev
FNDA:1,_ZN51ExceptionsBaseTest_ConnectionErrorConstruction_TestD2Ev
FNDA:1,_ZN50ExceptionsBaseTest_ConnectionErrorInheritance_Test8TestBodyEv
FNDA:1,_ZN50ExceptionsBaseTest_ConnectionErrorInheritance_TestC2Ev
FNDA:1,_ZN50ExceptionsBaseTest_ConnectionErrorInheritance_TestD0Ev
FNDA:1,_ZN50ExceptionsBaseTest_ConnectionErrorInheritance_TestD2Ev
FNDA:1,_ZN48ExceptionsBaseTest_TimeoutErrorConstruction_Test8TestBodyEv
FNDA:1,_ZN48ExceptionsBaseTest_TimeoutErrorConstruction_TestC2Ev
FNDA:1,_ZN48ExceptionsBaseTest_TimeoutErrorConstruction_TestD0Ev
FNDA:1,_ZN48ExceptionsBaseTest_TimeoutErrorConstruction_TestD2Ev
FNDA:1,_ZN47ExceptionsBaseTest_TimeoutErrorInheritance_Test8TestBodyEv
FNDA:1,_ZN47ExceptionsBaseTest_TimeoutErrorInheritance_TestC2Ev
FNDA:1,_ZN47ExceptionsBaseTest_TimeoutErrorInheritance_TestD0Ev
FNDA:1,_ZN47ExceptionsBaseTest_TimeoutErrorInheritance_TestD2Ev
FNDA:1,_ZN56ExceptionsBaseTest_UnknownObjectIDErrorConstruction_Test8TestBodyEv
FNDA:1,_ZN56ExceptionsBaseTest_UnknownObjectIDErrorConstruction_TestC2Ev
FNDA:1,_ZN56ExceptionsBaseTest_UnknownObjectIDErrorConstruction_TestD0Ev
FNDA:1,_ZN56ExceptionsBaseTest_UnknownObjectIDErrorConstruction_TestD2Ev
FNDA:1,_ZN55ExceptionsBaseTest_UnknownObjectIDErrorInheritance_Test8TestBodyEv
FNDA:1,_ZN55ExceptionsBaseTest_UnknownObjectIDErrorInheritance_TestC2Ev
FNDA:1,_ZN55ExceptionsBaseTest_UnknownObjectIDErrorInheritance_TestD0Ev
FNDA:1,_ZN55ExceptionsBaseTest_UnknownObjectIDErrorInheritance_TestD2Ev
FNDA:1,_ZN53ExceptionsBaseTest_GenericErrorBasicConstruction_Test8TestBodyEv
FNDA:1,_ZN53ExceptionsBaseTest_GenericErrorBasicConstruction_TestC2Ev
FNDA:1,_ZN53ExceptionsBaseTest_GenericErrorBasicConstruction_TestD0Ev
FNDA:1,_ZN53ExceptionsBaseTest_GenericErrorBasicConstruction_TestD2Ev
FNDA:1,_ZN51ExceptionsBaseTest_NoSuchNameErrorConstruction_Test8TestBodyEv
FNDA:1,_ZN51ExceptionsBaseTest_NoSuchNameErrorConstruction_TestC2Ev
FNDA:1,_ZN51ExceptionsBaseTest_NoSuchNameErrorConstruction_TestD0Ev
FNDA:1,_ZN51ExceptionsBaseTest_NoSuchNameErrorConstruction_TestD2Ev
FNDA:1,_ZN50ExceptionsBaseTest_NoSuchNameErrorInheritance_Test8TestBodyEv
FNDA:1,_ZN50ExceptionsBaseTest_NoSuchNameErrorInheritance_TestC2Ev
FNDA:1,_ZN50ExceptionsBaseTest_NoSuchNameErrorInheritance_TestD0Ev
FNDA:1,_ZN50ExceptionsBaseTest_NoSuchNameErrorInheritance_TestD2Ev
FNDA:1,_ZN53ExceptionsBaseTest_NoSuchObjectErrorConstruction_Test8TestBodyEv
FNDA:1,_ZN53ExceptionsBaseTest_NoSuchObjectErrorConstruction_TestC2Ev
FNDA:1,_ZN53ExceptionsBaseTest_NoSuchObjectErrorConstruction_TestD0Ev
FNDA:1,_ZN53ExceptionsBaseTest_NoSuchObjectErrorConstruction_TestD2Ev
FNDA:1,_ZN52ExceptionsBaseTest_NoSuchObjectErrorInheritance_Test8TestBodyEv
FNDA:1,_ZN52ExceptionsBaseTest_NoSuchObjectErrorInheritance_TestC2Ev
FNDA:1,_ZN52ExceptionsBaseTest_NoSuchObjectErrorInheritance_TestD0Ev
FNDA:1,_ZN52ExceptionsBaseTest_NoSuchObjectErrorInheritance_TestD2Ev
FNDA:1,_ZN55ExceptionsBaseTest_NoSuchInstanceErrorConstruction_Test8TestBodyEv
FNDA:1,_ZN55ExceptionsBaseTest_NoSuchInstanceErrorConstruction_TestC2Ev
FNDA:1,_ZN55ExceptionsBaseTest_NoSuchInstanceErrorConstruction_TestD0Ev
FNDA:1,_ZN55ExceptionsBaseTest_NoSuchInstanceErrorConstruction_TestD2Ev
FNF:104
FNH:104
DA:6,4
DA:7,1
DA:8,1
DA:9,1
DA:11,4
DA:12,1
DA:13,1
DA:14,1
DA:16,4
DA:17,3
DA:21,1
DA:22,1
DA:25,4
DA:26,1
DA:27,1
DA:28,1
DA:30,4
DA:31,3
DA:35,1
DA:36,1
DA:39,4
DA:40,1
DA:41,1
DA:42,1
DA:44,4
DA:45,3
DA:49,1
DA:50,1
DA:53,4
DA:54,1
DA:55,1
DA:56,1
DA:58,4
DA:59,3
DA:63,1
DA:64,1
DA:67,4
DA:68,1
DA:69,1
DA:70,1
DA:72,4
DA:73,3
DA:77,1
DA:78,1
DA:81,4
DA:82,1
DA:83,1
DA:84,1
DA:86,4
DA:87,3
DA:91,1
DA:92,1
DA:95,4
DA:96,1
DA:97,1
DA:98,1
DA:100,4
DA:101,3
DA:105,1
DA:106,1
DA:109,4
DA:110,1
DA:111,1
DA:112,1
DA:114,4
DA:115,3
DA:119,1
DA:120,1
DA:123,4
DA:124,1
DA:125,1
DA:126,1
DA:128,4
DA:129,3
DA:133,1
DA:134,1
DA:137,4
DA:138,1
DA:139,1
DA:140,1
DA:142,4
DA:143,3
DA:147,1
DA:148,1
DA:151,4
DA:153,3
DA:155,1
DA:156,1
DA:157,1
DA:158,0
DA:159,0
DA:163,4
DA:165,3
DA:167,1
DA:168,1
DA:169,1
DA:173,4
DA:174,1
DA:175,1
DA:176,1
DA:179,4
DA:180,1
DA:181,1
DA:182,3
DA:183,1
DA:186,4
DA:187,1
DA:188,1
DA:189,1
DA:190,1
LF:110
LH:108
end_of_record
TN:
SF:/home/runner/work/ezsnmp/ezsnmp/cpp_tests/test_helpers.cpp
FN:11,11,_ZN38ParseResultsTest_TestBasicResults_Test8TestBodyEv
FN:11,11,_ZN38ParseResultsTest_TestBasicResults_TestC2Ev
FN:11,11,_ZN38ParseResultsTest_TestBasicResults_TestD0Ev
FN:11,11,_ZN38ParseResultsTest_TestBasicResults_TestD2Ev
FN:131,131,_ZN36ParseResultsTest_TestLongValues_Test8TestBodyEv
FN:131,131,_ZN36ParseResultsTest_TestLongValues_TestC2Ev
FN:131,131,_ZN36ParseResultsTest_TestLongValues_TestD0Ev
FN:131,131,_ZN36ParseResultsTest_TestLongValues_TestD2Ev
FN:160,160,_ZN44ParseResultsTest_TestWhitespaceTrailing_Test8TestBodyEv
FN:160,160,_ZN44ParseResultsTest_TestWhitespaceTrailing_TestC2Ev
FN:160,160,_ZN44ParseResultsTest_TestWhitespaceTrailing_TestD0Ev
FN:160,160,_ZN44ParseResultsTest_TestWhitespaceTrailing_TestD2Ev
FN:194,194,_ZN39ParseResultsTest_TestJustTimeticks_Test8TestBodyEv
FN:194,194,_ZN39ParseResultsTest_TestJustTimeticks_TestC2Ev
FN:194,194,_ZN39ParseResultsTest_TestJustTimeticks_TestD0Ev
FN:194,194,_ZN39ParseResultsTest_TestJustTimeticks_TestD2Ev
FN:215,215,_ZN44ParseResultsTest_TestSnmpwalkStringType_Test8TestBodyEv
FN:215,215,_ZN44ParseResultsTest_TestSnmpwalkStringType_TestC2Ev
FN:215,215,_ZN44ParseResultsTest_TestSnmpwalkStringType_TestD0Ev
FN:215,215,_ZN44ParseResultsTest_TestSnmpwalkStringType_TestD2Ev
FN:229,229,_ZN41ParseResultsTest_TestSnmpwalkOidType_Test8TestBodyEv
FN:229,229,_ZN41ParseResultsTest_TestSnmpwalkOidType_TestC2Ev
FN:229,229,_ZN41ParseResultsTest_TestSnmpwalkOidType_TestD0Ev
FN:229,229,_ZN41ParseResultsTest_TestSnmpwalkOidType_TestD2Ev
FN:239,239,_ZN46ParseResultsTest_TestSnmpwalkIntegerTypes_Test8TestBodyEv
FN:239,239,_ZN46ParseResultsTest_TestSnmpwalkIntegerTypes_TestC2Ev
FN:239,239,_ZN46ParseResultsTest_TestSnmpwalkIntegerTypes_TestD0Ev
FN:239,239,_ZN46ParseResultsTest_TestSnmpwalkIntegerTypes_TestD2Ev
FN:262,262,_ZN51ParseResultsTest_TestSnmpwalkGaugeCounterTypes_Test8TestBodyEv
FN:262,262,_ZN51ParseResultsTest_TestSnmpwalkGaugeCounterTypes_TestC2Ev
FN:262,262,_ZN51ParseResultsTest_TestSnmpwalkGaugeCounterTypes_TestD0Ev
FN:262,262,_ZN51ParseResultsTest_TestSnmpwalkGaugeCounterTypes_TestD2Ev
FN:285,285,_ZN52ParseResultsTest_TestSnmpwalkComplexStringTypes_Test8TestBodyEv
FN:285,285,_ZN52ParseResultsTest_TestSnmpwalkComplexStringTypes_TestC2Ev
FN:285,285,_ZN52ParseResultsTest_TestSnmpwalkComplexStringTypes_TestD0Ev
FN:285,285,_ZN52ParseResultsTest_TestSnmpwalkComplexStringTypes_TestD2Ev
FN:303,303,_ZN47ParseResultsTest_TestSnmpwalkHexStringType_Test8TestBodyEv
FN:303,303,_ZN47ParseResultsTest_TestSnmpwalkHexStringType_TestC2Ev
FN:303,303,_ZN47ParseResultsTest_TestSnmpwalkHexStringType_TestD0Ev
FN:303,303,_ZN47ParseResultsTest_TestSnmpwalkHexStringType_TestD2Ev
FN:315,315,_ZN47ParseResultsTest_TestSnmpwalkIpAddressType_Test8TestBodyEv
FN:315,315,_ZN47ParseResultsTest_TestSnmpwalkIpAddressType_TestC2Ev
FN:315,315,_ZN47ParseResultsTest_TestSnmpwalkIpAddressType_TestD0Ev
FN:315,315,_ZN47ParseResultsTest_TestSnmpwalkIpAddressType_TestD2Ev
FN:327,327,_ZN52ParseResultsTest_TestSnmpwalkNetworkAddressType_Test8TestBodyEv
FN:327,327,_ZN52ParseResultsTest_TestSnmpwalkNetworkAddressType_TestC2Ev
FN:327,327,_ZN52ParseResultsTest_TestSnmpwalkNetworkAddressType_TestD0Ev
FN:327,327,_ZN52ParseResultsTest_TestSnmpwalkNetworkAddressType_TestD2Ev
FN:38,38,_ZN36ParseResultsTest_TestEmptyInput_Test8TestBodyEv
FN:38,38,_ZN36ParseResultsTest_TestEmptyInput_TestC2Ev
FN:38,38,_ZN36ParseResultsTest_TestEmptyInput_TestD0Ev
FN:38,38,_ZN36ParseResultsTest_TestEmptyInput_TestD2Ev
FN:44,44,_ZN45ParseResultsTest_TestNoSuchObjectResults_Test8TestBodyEv
FN:44,44,_ZN45ParseResultsTest_TestNoSuchObjectResults_TestC2Ev
FN:44,44,_ZN45ParseResultsTest_TestNoSuchObjectResults_TestD0Ev
FN:44,44,_ZN45ParseResultsTest_TestNoSuchObjectResults_TestD2Ev
FN:56,56,_ZN47ParseResultsTest_TestNoSuchInstanceResults_Test8TestBodyEv
FN:56,56,_ZN47ParseResultsTest_TestNoSuchInstanceResults_TestC2Ev
FN:56,56,_ZN47ParseResultsTest_TestNoSuchInstanceResults_TestD0Ev
FN:56,56,_ZN47ParseResultsTest_TestNoSuchInstanceResults_TestD2Ev
FN:68,94,_ZN43ParseResultsTest_TestComplexOIDResults_Test8TestBodyEv
FN:68,94,_ZN43ParseResultsTest_TestComplexOIDResults_TestC2Ev
FN:68,94,_ZN43ParseResultsTest_TestComplexOIDResults_TestD0Ev
FN:68,94,_ZN43ParseResultsTest_TestComplexOIDResults_TestD2Ev
FN:7,7,_ZN16ParseResultsTest5SetUpEv
FN:8,8,_ZN16ParseResultsTest8TearDownEv
FN:96,129,_ZN38ParseResultsTest_TestMixedResults_Test8TestBodyEv
FN:96,129,_ZN38ParseResultsTest_TestMixedResults_TestC2Ev
FN:96,129,_ZN38ParseResultsTest_TestMixedResults_TestD0Ev
FN:96,129,_ZN38ParseResultsTest_TestMixedResults_TestD2Ev
FNDA:1,_ZN38ParseResultsTest_TestBasicResults_Test8TestBodyEv
FNDA:1,_ZN38ParseResultsTest_TestBasicResults_TestC2Ev
FNDA:1,_ZN38ParseResultsTest_TestBasicResults_TestD0Ev
FNDA:1,_ZN38ParseResultsTest_TestBasicResults_TestD2Ev
FNDA:1,_ZN36ParseResultsTest_TestLongValues_Test8TestBodyEv
FNDA:1,_ZN36ParseResultsTest_TestLongValues_TestC2Ev
FNDA:1,_ZN36ParseResultsTest_TestLongValues_TestD0Ev
FNDA:1,_ZN36ParseResultsTest_TestLongValues_TestD2Ev
FNDA:1,_ZN44ParseResultsTest_TestWhitespaceTrailing_Test8TestBodyEv
FNDA:1,_ZN44ParseResultsTest_TestWhitespaceTrailing_TestC2Ev
FNDA:1,_ZN44ParseResultsTest_TestWhitespaceTrailing_TestD0Ev
FNDA:1,_ZN44ParseResultsTest_TestWhitespaceTrailing_TestD2Ev
FNDA:1,_ZN39ParseResultsTest_TestJustTimeticks_Test8TestBodyEv
FNDA:1,_ZN39ParseResultsTest_TestJustTimeticks_TestC2Ev
FNDA:1,_ZN39ParseResultsTest_TestJustTimeticks_TestD0Ev
FNDA:1,_ZN39ParseResultsTest_TestJustTimeticks_TestD2Ev
FNDA:1,_ZN44ParseResultsTest_TestSnmpwalkStringType_Test8TestBodyEv
FNDA:1,_ZN44ParseResultsTest_TestSnmpwalkStringType_TestC2Ev
FNDA:1,_ZN44ParseResultsTest_TestSnmpwalkStringType_TestD0Ev
FNDA:1,_ZN44ParseResultsTest_TestSnmpwalkStringType_TestD2Ev
FNDA:1,_ZN41ParseResultsTest_TestSnmpwalkOidType_Test8TestBodyEv
FNDA:1,_ZN41ParseResultsTest_TestSnmpwalkOidType_TestC2Ev
FNDA:1,_ZN41ParseResultsTest_TestSnmpwalkOidType_TestD0Ev
FNDA:1,_ZN41ParseResultsTest_TestSnmpwalkOidType_TestD2Ev
FNDA:1,_ZN46ParseResultsTest_TestSnmpwalkIntegerTypes_Test8TestBodyEv
FNDA:1,_ZN46ParseResultsTest_TestSnmpwalkIntegerTypes_TestC2Ev
FNDA:1,_ZN46ParseResultsTest_TestSnmpwalkIntegerTypes_TestD0Ev
FNDA:1,_ZN46ParseResultsTest_TestSnmpwalkIntegerTypes_TestD2Ev
FNDA:1,_ZN51ParseResultsTest_TestSnmpwalkGaugeCounterTypes_Test8TestBodyEv
FNDA:1,_ZN51ParseResultsTest_TestSnmpwalkGaugeCounterTypes_TestC2Ev
FNDA:1,_ZN51ParseResultsTest_TestSnmpwalkGaugeCounterTypes_TestD0Ev
FNDA:1,_ZN51ParseResultsTest_TestSnmpwalkGaugeCounterTypes_TestD2Ev
FNDA:1,_ZN52ParseResultsTest_TestSnmpwalkComplexStringTypes_Test8TestBodyEv
FNDA:1,_ZN52ParseResultsTest_TestSnmpwalkComplexStringTypes_TestC2Ev
FNDA:1,_ZN52ParseResultsTest_TestSnmpwalkComplexStringTypes_TestD0Ev
FNDA:1,_ZN52ParseResultsTest_TestSnmpwalkComplexStringTypes_TestD2Ev
FNDA:1,_ZN47ParseResultsTest_TestSnmpwalkHexStringType_Test8TestBodyEv
FNDA:1,_ZN47ParseResultsTest_TestSnmpwalkHexStringType_TestC2Ev
FNDA:1,_ZN47ParseResultsTest_TestSnmpwalkHexStringType_TestD0Ev
FNDA:1,_ZN47ParseResultsTest_TestSnmpwalkHexStringType_TestD2Ev
FNDA:1,_ZN47ParseResultsTest_TestSnmpwalkIpAddressType_Test8TestBodyEv
FNDA:1,_ZN47ParseResultsTest_TestSnmpwalkIpAddressType_TestC2Ev
FNDA:1,_ZN47ParseResultsTest_TestSnmpwalkIpAddressType_TestD0Ev
FNDA:1,_ZN47ParseResultsTest_TestSnmpwalkIpAddressType_TestD2Ev
FNDA:1,_ZN52ParseResultsTest_TestSnmpwalkNetworkAddressType_Test8TestBodyEv
FNDA:1,_ZN52ParseResultsTest_TestSnmpwalkNetworkAddressType_TestC2Ev
FNDA:1,_ZN52ParseResultsTest_TestSnmpwalkNetworkAddressType_TestD0Ev
FNDA:1,_ZN52ParseResultsTest_TestSnmpwalkNetworkAddressType_TestD2Ev
FNDA:1,_ZN36ParseResultsTest_TestEmptyInput_Test8TestBodyEv
FNDA:1,_ZN36ParseResultsTest_TestEmptyInput_TestC2Ev
FNDA:1,_ZN36ParseResultsTest_TestEmptyInput_TestD0Ev
FNDA:1,_ZN36ParseResultsTest_TestEmptyInput_TestD2Ev
FNDA:1,_ZN45ParseResultsTest_TestNoSuchObjectResults_Test8TestBodyEv
FNDA:1,_ZN45ParseResultsTest_TestNoSuchObjectResults_TestC2Ev
FNDA:1,_ZN45ParseResultsTest_TestNoSuchObjectResults_TestD0Ev
FNDA:1,_ZN45ParseResultsTest_TestNoSuchObjectResults_TestD2Ev
FNDA:1,_ZN47ParseResultsTest_TestNoSuchInstanceResults_Test8TestBodyEv
FNDA:1,_ZN47ParseResultsTest_TestNoSuchInstanceResults_TestC2Ev
FNDA:1,_ZN47ParseResultsTest_TestNoSuchInstanceResults_TestD0Ev
FNDA:1,_ZN47ParseResultsTest_TestNoSuchInstanceResults_TestD2Ev
FNDA:1,_ZN43ParseResultsTest_TestComplexOIDResults_Test8TestBodyEv
FNDA:1,_ZN43ParseResultsTest_TestComplexOIDResults_TestC2Ev
FNDA:1,_ZN43ParseResultsTest_TestComplexOIDResults_TestD0Ev
FNDA:1,_ZN43ParseResultsTest_TestComplexOIDResults_TestD2Ev
FNDA:17,_ZN16ParseResultsTest5SetUpEv
FNDA:17,_ZN16ParseResultsTest8TearDownEv
FNDA:1,_ZN38ParseResultsTest_TestMixedResults_Test8TestBodyEv
FNDA:1,_ZN38ParseResultsTest_TestMixedResults_TestC2Ev
FNDA:1,_ZN38ParseResultsTest_TestMixedResults_TestD0Ev
FNDA:1,_ZN38ParseResultsTest_TestMixedResults_TestD2Ev
FNF:70
FNH:70
DA:7,17
DA:8,17
DA:11,4
DA:14,2
DA:16,1
DA:17,1
DA:20,1
DA:21,1
DA:22,1
DA:23,1
DA:26,1
DA:27,1
DA:28,1
DA:29,1
DA:32,1
DA:33,1
DA:34,1
DA:35,1
DA:36,1
DA:38,4
DA:39,1
DA:40,1
DA:41,1
DA:42,1
DA:44,4
DA:46,2
DA:48,1
DA:49,1
DA:50,1
DA:51,1
DA:52,1
DA:53,1
DA:54,1
DA:56,4
DA:58,2
DA:60,1
DA:61,1
DA:62,1
DA:63,1
DA:64,1
DA:65,1
DA:66,1
DA:68,4
DA:72,2
DA:74,1
DA:75,1
DA:78,1
DA:79,1
DA:80,1
DA:81,1
DA:84,1
DA:85,1
DA:86,1
DA:87,1
DA:90,1
DA:91,1
DA:92,1
DA:93,1
DA:94,1
DA:96,4
DA:101,2
DA:103,1
DA:104,1
DA:107,1
DA:108,1
DA:109,1
DA:110,1
DA:113,1
DA:114,1
DA:115,1
DA:116,1
DA:119,1
DA:120,1
DA:121,1
DA:122,1
DA:125,1
DA:126,1
DA:127,1
DA:128,1
DA:129,1
DA:131,4
DA:133,1
DA:134,1
DA:135,1
DA:136,5
DA:138,1
DA:139,1
DA:142,1
DA:143,1
DA:144,1
DA:145,2
DA:148,1
DA:149,1
DA:150,1
DA:151,2
DA:154,1
DA:155,1
DA:156,1
DA:157,2
DA:158,3
DA:160,4
DA:164,2
DA:166,1
DA:167,1
DA:170,1
DA:171,1
DA:172,1
DA:173,1
DA:176,1
DA:177,1
DA:178,1
DA:179,1
DA:182,1
DA:183,1
DA:184,1
DA:185,1
DA:188,1
DA:189,1
DA:190,1
DA:191,1
DA:192,1
DA:194,4
DA:197,2
DA:199,1
DA:200,1
DA:203,1
DA:204,1
DA:205,1
DA:206,1
DA:209,1
DA:210,1
DA:211,1
DA:212,1
DA:213,1
DA:215,4
DA:218,2
DA:219,1
DA:220,1
DA:221,1
DA:222,1
DA:223,1
DA:224,1
DA:226,1
DA:227,1
DA:229,4
DA:230,2
DA:231,1
DA:232,1
DA:233,1
DA:234,1
DA:235,1
DA:236,1
DA:237,1
DA:239,4
DA:242,2
DA:243,1
DA:244,1
DA:246,1
DA:247,1
DA:248,1
DA:249,1
DA:251,1
DA:252,1
DA:253,1
DA:254,1
DA:256,1
DA:257,1
DA:258,1
DA:259,1
DA:260,1
DA:262,4
DA:265,2
DA:266,1
DA:267,1
DA:269,1
DA:270,1
DA:271,1
DA:272,1
DA:274,1
DA:275,1
DA:276,1
DA:277,1
DA:279,1
DA:280,1
DA:281,1
DA:282,1
DA:283,1
DA:285,4
DA:288,2
DA:289,1
DA:290,1
DA:292,1
DA:293,1
DA:294,1
DA:295,1
DA:297,1
DA:298,1
DA:299,1
DA:300,1
DA:301,1
DA:303,4
DA:305,2
DA:306,1
DA:307,1
DA:309,1
DA:310,1
DA:311,1
DA:312,1
DA:313,1
DA:315,4
DA:317,2
DA:318,1
DA:319,1
DA:321,1
DA:322,1
DA:323,1
DA:324,1
DA:325,1
DA:327,4
DA:329,2
DA:330,1
DA:331,1
DA:333,1
DA:334,1
DA:335,1
DA:336,1
DA:337,1
LF:227
LH:227
end_of_record
TN:
SF:/home/runner/work/ezsnmp/ezsnmp/cpp_tests/test_snmpbulkget.cpp
FN:10,10,_ZN15SnmpBulkGetTest8TearDownEv
FN:13,13,_ZN35SnmpBulkGetTest_TestInvalidOid_Test8TestBodyEv
FN:13,13,_ZN35SnmpBulkGetTest_TestInvalidOid_TestC2Ev
FN:13,13,_ZN35SnmpBulkGetTest_TestInvalidOid_TestD0Ev
FN:13,13,_ZN35SnmpBulkGetTest_TestInvalidOid_TestD2Ev
FN:29,29,_ZN36SnmpBulkGetTest_TestUnknownHost_Test8TestBodyEv
FN:29,29,_ZN36SnmpBulkGetTest_TestUnknownHost_TestC2Ev
FN:29,29,_ZN36SnmpBulkGetTest_TestUnknownHost_TestD0Ev
FN:29,29,_ZN36SnmpBulkGetTest_TestUnknownHost_TestD2Ev
FN:47,47,_ZN39SnmpBulkGetTest_TestInvalidVersion_Test8TestBodyEv
FN:47,47,_ZN39SnmpBulkGetTest_TestInvalidVersion_TestC2Ev
FN:47,47,_ZN39SnmpBulkGetTest_TestInvalidVersion_TestD0Ev
FN:47,47,_ZN39SnmpBulkGetTest_TestInvalidVersion_TestD2Ev
FN:9,9,_ZN15SnmpBulkGetTest5SetUpEv
FNDA:3,_ZN15SnmpBulkGetTest8TearDownEv
FNDA:1,_ZN35SnmpBulkGetTest_TestInvalidOid_Test8TestBodyEv
FNDA:1,_ZN35SnmpBulkGetTest_TestInvalidOid_TestC2Ev
FNDA:1,_ZN35SnmpBulkGetTest_TestInvalidOid_TestD0Ev
FNDA:1,_ZN35SnmpBulkGetTest_TestInvalidOid_TestD2Ev
FNDA:1,_ZN36SnmpBulkGetTest_TestUnknownHost_Test8TestBodyEv
FNDA:1,_ZN36SnmpBulkGetTest_TestUnknownHost_TestC2Ev
FNDA:1,_ZN36SnmpBulkGetTest_TestUnknownHost_TestD0Ev
FNDA:1,_ZN36SnmpBulkGetTest_TestUnknownHost_TestD2Ev
FNDA:1,_ZN39SnmpBulkGetTest_TestInvalidVersion_Test8TestBodyEv
FNDA:1,_ZN39SnmpBulkGetTest_TestInvalidVersion_TestC2Ev
FNDA:1,_ZN39SnmpBulkGetTest_TestInvalidVersion_TestD0Ev
FNDA:1,_ZN39SnmpBulkGetTest_TestInvalidVersion_TestD2Ev
FNDA:3,_ZN15SnmpBulkGetTest5SetUpEv
FNF:14
FNH:14
DA:9,3
DA:10,3
DA:13,4
DA:15,2
DA:17,5
DA:26,1
DA:27,1
DA:29,4
DA:31,2
DA:33,8
DA:44,1
DA:45,1
DA:47,4
DA:49,2
DA:51,5
DA:60,1
DA:61,1
LF:17
LH:17
end_of_record
TN:
SF:/home/runner/work/ezsnmp/ezsnmp/cpp_tests/test_snmpbulkwalk.cpp
FN:10,10,_ZN16SnmpBulkWalkTest8TearDownEv
FN:13,13,_ZN36SnmpBulkWalkTest_TestInvalidOid_Test8TestBodyEv
FN:13,13,_ZN36SnmpBulkWalkTest_TestInvalidOid_TestC2Ev
FN:13,13,_ZN36SnmpBulkWalkTest_TestInvalidOid_TestD0Ev
FN:13,13,_ZN36SnmpBulkWalkTest_TestInvalidOid_TestD2Ev
FN:29,29,_ZN37SnmpBulkWalkTest_TestUnknownHost_Test8TestBodyEv
FN:29,29,_ZN37SnmpBulkWalkTest_TestUnknownHost_TestC2Ev
FN:29,29,_ZN37SnmpBulkWalkTest_TestUnknownHost_TestD0Ev
FN:29,29,_ZN37SnmpBulkWalkTest_TestUnknownHost_TestD2Ev
FN:47,47,_ZN40SnmpBulkWalkTest_TestInvalidVersion_Test8TestBodyEv
FN:47,47,_ZN40SnmpBulkWalkTest_TestInvalidVersion_TestC2Ev
FN:47,47,_ZN40SnmpBulkWalkTest_TestInvalidVersion_TestD0Ev
FN:47,47,_ZN40SnmpBulkWalkTest_TestInvalidVersion_TestD2Ev
FN:9,9,_ZN16SnmpBulkWalkTest5SetUpEv
FNDA:3,_ZN16SnmpBulkWalkTest8TearDownEv
FNDA:1,_ZN36SnmpBulkWalkTest_TestInvalidOid_Test8TestBodyEv
FNDA:1,_ZN36SnmpBulkWalkTest_TestInvalidOid_TestC2Ev
FNDA:1,_ZN36SnmpBulkWalkTest_TestInvalidOid_TestD0Ev
FNDA:1,_ZN36SnmpBulkWalkTest_TestInvalidOid_TestD2Ev
FNDA:1,_ZN37SnmpBulkWalkTest_TestUnknownHost_Test8TestBodyEv
FNDA:1,_ZN37SnmpBulkWalkTest_TestUnknownHost_TestC2Ev
FNDA:1,_ZN37SnmpBulkWalkTest_TestUnknownHost_TestD0Ev
FNDA:1,_ZN37SnmpBulkWalkTest_TestUnknownHost_TestD2Ev
FNDA:1,_ZN40SnmpBulkWalkTest_TestInvalidVersion_Test8TestBodyEv
FNDA:1,_ZN40SnmpBulkWalkTest_TestInvalidVersion_TestC2Ev
FNDA:1,_ZN40SnmpBulkWalkTest_TestInvalidVersion_TestD0Ev
FNDA:1,_ZN40SnmpBulkWalkTest_TestInvalidVersion_TestD2Ev
FNDA:3,_ZN16SnmpBulkWalkTest5SetUpEv
FNF:14
FNH:14
DA:9,3
DA:10,3
DA:13,4
DA:15,2
DA:17,5
DA:26,1
DA:27,1
DA:29,4
DA:31,2
DA:33,8
DA:44,1
DA:45,1
DA:47,4
DA:49,2
DA:51,5
DA:60,1
DA:61,1
LF:17
LH:17
end_of_record
TN:
SF:/home/runner/work/ezsnmp/ezsnmp/cpp_tests/test_snmpget.cpp
FN:100,114,_ZN31SnmpGetTest_TestInvalidOid_Test8TestBodyEv
FN:100,114,_ZN31SnmpGetTest_TestInvalidOid_TestC2Ev
FN:100,114,_ZN31SnmpGetTest_TestInvalidOid_TestD0Ev
FN:100,114,_ZN31SnmpGetTest_TestInvalidOid_TestD2Ev
FN:116,116,_ZN31SnmpGetTest_TestUknownHost_Test8TestBodyEv
FN:116,116,_ZN31SnmpGetTest_TestUknownHost_TestC2Ev
FN:116,116,_ZN31SnmpGetTest_TestUknownHost_TestD0Ev
FN:116,116,_ZN31SnmpGetTest_TestUknownHost_TestD2Ev
FN:12,12,_ZN29SnmpGetTest_TestBasicGet_Test8TestBodyEv
FN:12,12,_ZN29SnmpGetTest_TestBasicGet_TestC2Ev
FN:12,12,_ZN29SnmpGetTest_TestBasicGet_TestD0Ev
FN:12,12,_ZN29SnmpGetTest_TestBasicGet_TestD2Ev
FN:132,132,_ZN35SnmpGetTest_TestInvalidVersion_Test8TestBodyEv
FN:132,132,_ZN35SnmpGetTest_TestInvalidVersion_TestC2Ev
FN:132,132,_ZN35SnmpGetTest_TestInvalidVersion_TestD0Ev
FN:132,132,_ZN35SnmpGetTest_TestInvalidVersion_TestD2Ev
FN:148,148,_ZN47SnmpGetTest_TestRepeatedOidGetWithSameFlag_Test8TestBodyEv
FN:148,148,_ZN47SnmpGetTest_TestRepeatedOidGetWithSameFlag_TestC2Ev
FN:148,148,_ZN47SnmpGetTest_TestRepeatedOidGetWithSameFlag_TestD0Ev
FN:148,148,_ZN47SnmpGetTest_TestRepeatedOidGetWithSameFlag_TestD2Ev
FN:161,187,_ZN54SnmpGetTest_TestRepeatedOidGetWithEnumsAndWithout_Test8TestBodyEv
FN:161,187,_ZN54SnmpGetTest_TestRepeatedOidGetWithEnumsAndWithout_TestC2Ev
FN:161,187,_ZN54SnmpGetTest_TestRepeatedOidGetWithEnumsAndWithout_TestD0Ev
FN:161,187,_ZN54SnmpGetTest_TestRepeatedOidGetWithEnumsAndWithout_TestD2Ev
FN:22,22,_ZN33SnmpGetTest_TestMultipleOids_Test8TestBodyEv
FN:22,22,_ZN33SnmpGetTest_TestMultipleOids_TestC2Ev
FN:22,22,_ZN33SnmpGetTest_TestMultipleOids_TestD0Ev
FN:22,22,_ZN33SnmpGetTest_TestMultipleOids_TestD2Ev
FN:39,39,_ZN26SnmpGetTest_TestV3Get_Test8TestBodyEv
FN:39,39,_ZN26SnmpGetTest_TestV3Get_TestC2Ev
FN:39,39,_ZN26SnmpGetTest_TestV3Get_TestD0Ev
FN:39,39,_ZN26SnmpGetTest_TestV3Get_TestD2Ev
FN:63,76,_ZN31SnmpGetTest_TestMissingOid_Test8TestBodyEv
FN:63,76,_ZN31SnmpGetTest_TestMissingOid_TestC2Ev
FN:63,76,_ZN31SnmpGetTest_TestMissingOid_TestD0Ev
FN:63,76,_ZN31SnmpGetTest_TestMissingOid_TestD2Ev
FN:78,98,_ZN32SnmpGetTest_TestTooManyOids_Test8TestBodyEv
FN:78,98,_ZN32SnmpGetTest_TestTooManyOids_TestC2Ev
FN:78,98,_ZN32SnmpGetTest_TestTooManyOids_TestD0Ev
FN:78,98,_ZN32SnmpGetTest_TestTooManyOids_TestD2Ev
FN:8,8,_ZN11SnmpGetTest5SetUpEv
FN:9,9,_ZN11SnmpGetTest8TearDownEv
FNDA:1,_ZN31SnmpGetTest_TestInvalidOid_Test8TestBodyEv
FNDA:1,_ZN31SnmpGetTest_TestInvalidOid_TestC2Ev
FNDA:1,_ZN31SnmpGetTest_TestInvalidOid_TestD0Ev
FNDA:1,_ZN31SnmpGetTest_TestInvalidOid_TestD2Ev
FNDA:1,_ZN31SnmpGetTest_TestUknownHost_Test8TestBodyEv
FNDA:1,_ZN31SnmpGetTest_TestUknownHost_TestC2Ev
FNDA:1,_ZN31SnmpGetTest_TestUknownHost_TestD0Ev
FNDA:1,_ZN31SnmpGetTest_TestUknownHost_TestD2Ev
FNDA:1,_ZN29SnmpGetTest_TestBasicGet_Test8TestBodyEv
FNDA:1,_ZN29SnmpGetTest_TestBasicGet_TestC2Ev
FNDA:1,_ZN29SnmpGetTest_TestBasicGet_TestD0Ev
FNDA:1,_ZN29SnmpGetTest_TestBasicGet_TestD2Ev
FNDA:1,_ZN35SnmpGetTest_TestInvalidVersion_Test8TestBodyEv
FNDA:1,_ZN35SnmpGetTest_TestInvalidVersion_TestC2Ev
FNDA:1,_ZN35SnmpGetTest_TestInvalidVersion_TestD0Ev
FNDA:1,_ZN35SnmpGetTest_TestInvalidVersion_TestD2Ev
FNDA:1,_ZN47SnmpGetTest_TestRepeatedOidGetWithSameFlag_Test8TestBodyEv
FNDA:1,_ZN47SnmpGetTest_TestRepeatedOidGetWithSameFlag_TestC2Ev
FNDA:1,_ZN47SnmpGetTest_TestRepeatedOidGetWithSameFlag_TestD0Ev
FNDA:1,_ZN47SnmpGetTest_TestRepeatedOidGetWithSameFlag_TestD2Ev
FNDA:1,_ZN54SnmpGetTest_TestRepeatedOidGetWithEnumsAndWithout_Test8TestBodyEv
FNDA:1,_ZN54SnmpGetTest_TestRepeatedOidGetWithEnumsAndWithout_TestC2Ev
FNDA:1,_ZN54SnmpGetTest_TestRepeatedOidGetWithEnumsAndWithout_TestD0Ev
FNDA:1,_ZN54SnmpGetTest_TestRepeatedOidGetWithEnumsAndWithout_TestD2Ev
FNDA:1,_ZN33SnmpGetTest_TestMultipleOids_Test8TestBodyEv
FNDA:1,_ZN33SnmpGetTest_TestMultipleOids_TestC2Ev
FNDA:1,_ZN33SnmpGetTest_TestMultipleOids_TestD0Ev
FNDA:1,_ZN33SnmpGetTest_TestMultipleOids_TestD2Ev
FNDA:1,_ZN26SnmpGetTest_TestV3Get_Test8TestBodyEv
FNDA:1,_ZN26SnmpGetTest_TestV3Get_TestC2Ev
FNDA:1,_ZN26SnmpGetTest_TestV3Get_TestD0Ev
FNDA:1,_ZN26SnmpGetTest_TestV3Get_TestD2Ev
FNDA:1,_ZN31SnmpGetTest_TestMissingOid_Test8TestBodyEv
FNDA:1,_ZN31SnmpGetTest_TestMissingOid_TestC2Ev
FNDA:1,_ZN31SnmpGetTest_TestMissingOid_TestD0Ev
FNDA:1,_ZN31SnmpGetTest_TestMissingOid_TestD2Ev
FNDA:1,_ZN32SnmpGetTest_TestTooManyOids_Test8TestBodyEv
FNDA:1,_ZN32SnmpGetTest_TestTooManyOids_TestC2Ev
FNDA:1,_ZN32SnmpGetTest_TestTooManyOids_TestD0Ev
FNDA:1,_ZN32SnmpGetTest_TestTooManyOids_TestD2Ev
FNDA:10,_ZN11SnmpGetTest5SetUpEv
FNDA:10,_ZN11SnmpGetTest8TearDownEv
FNF:42
FNH:42
DA:8,10
DA:9,10
DA:12,4
DA:14,3
DA:16,2
DA:17,0
DA:18,0
DA:19,0
DA:20,1
DA:22,4
DA:29,3
DA:31,2
DA:32,0
DA:33,0
DA:34,0
DA:35,0
DA:36,0
DA:37,1
DA:39,4
DA:55,3
DA:57,2
DA:58,0
DA:59,0
DA:60,0
DA:61,1
DA:63,4
DA:64,2
DA:66,5
DA:75,1
DA:76,1
DA:78,4
DA:79,2
DA:82,130
DA:83,258
DA:86,5
DA:97,1
DA:98,1
DA:100,4
DA:102,2
DA:104,5
DA:113,1
DA:114,1
DA:116,4
DA:118,2
DA:120,5
DA:129,1
DA:130,1
DA:132,4
DA:134,2
DA:136,5
DA:145,1
DA:146,1
DA:148,4
DA:150,3
DA:152,1
DA:154,1
DA:155,2
DA:156,0
DA:157,0
DA:158,0
DA:159,0
DA:161,4
DA:163,3
DA:166,2
DA:168,1
DA:170,1
DA:171,1
DA:173,1
DA:174,2
DA:175,2
DA:178,2
DA:179,0
DA:181,0
DA:182,0
DA:184,0
DA:186,0
DA:187,0
LF:77
LH:56
end_of_record
TN:
SF:/home/runner/work/ezsnmp/ezsnmp/cpp_tests/test_snmpgetnext.cpp
FN:10,10,_ZN15SnmpGetNextTest8TearDownEv
FN:13,13,_ZN35SnmpGetNextTest_TestMissingOid_Test8TestBodyEv
FN:13,13,_ZN35SnmpGetNextTest_TestMissingOid_TestC2Ev
FN:13,13,_ZN35SnmpGetNextTest_TestMissingOid_TestD0Ev
FN:13,13,_ZN35SnmpGetNextTest_TestMissingOid_TestD2Ev
FN:28,28,_ZN36SnmpGetNextTest_TestTooManyOids_Test8TestBodyEv
FN:28,28,_ZN36SnmpGetNextTest_TestTooManyOids_TestC2Ev
FN:28,28,_ZN36SnmpGetNextTest_TestTooManyOids_TestD0Ev
FN:28,28,_ZN36SnmpGetNextTest_TestTooManyOids_TestD2Ev
FN:50,50,_ZN35SnmpGetNextTest_TestInvalidOid_Test8TestBodyEv
FN:50,50,_ZN35SnmpGetNextTest_TestInvalidOid_TestC2Ev
FN:50,50,_ZN35SnmpGetNextTest_TestInvalidOid_TestD0Ev
FN:50,50,_ZN35SnmpGetNextTest_TestInvalidOid_TestD2Ev
FN:66,66,_ZN36SnmpGetNextTest_TestUnknownHost_Test8TestBodyEv
FN:66,66,_ZN36SnmpGetNextTest_TestUnknownHost_TestC2Ev
FN:66,66,_ZN36SnmpGetNextTest_TestUnknownHost_TestD0Ev
FN:66,66,_ZN36SnmpGetNextTest_TestUnknownHost_TestD2Ev
FN:86,86,_ZN39SnmpGetNextTest_TestInvalidVersion_Test8TestBodyEv
FN:86,86,_ZN39SnmpGetNextTest_TestInvalidVersion_TestC2Ev
FN:86,86,_ZN39SnmpGetNextTest_TestInvalidVersion_TestD0Ev
FN:86,86,_ZN39SnmpGetNextTest_TestInvalidVersion_TestD2Ev
FN:9,9,_ZN15SnmpGetNextTest5SetUpEv
FNDA:5,_ZN15SnmpGetNextTest8TearDownEv
FNDA:1,_ZN35SnmpGetNextTest_TestMissingOid_Test8TestBodyEv
FNDA:1,_ZN35SnmpGetNextTest_TestMissingOid_TestC2Ev
FNDA:1,_ZN35SnmpGetNextTest_TestMissingOid_TestD0Ev
FNDA:1,_ZN35SnmpGetNextTest_TestMissingOid_TestD2Ev
FNDA:1,_ZN36SnmpGetNextTest_TestTooManyOids_Test8TestBodyEv
FNDA:1,_ZN36SnmpGetNextTest_TestTooManyOids_TestC2Ev
FNDA:1,_ZN36SnmpGetNextTest_TestTooManyOids_TestD0Ev
FNDA:1,_ZN36SnmpGetNextTest_TestTooManyOids_TestD2Ev
FNDA:1,_ZN35SnmpGetNextTest_TestInvalidOid_Test8TestBodyEv
FNDA:1,_ZN35SnmpGetNextTest_TestInvalidOid_TestC2Ev
FNDA:1,_ZN35SnmpGetNextTest_TestInvalidOid_TestD0Ev
FNDA:1,_ZN35SnmpGetNextTest_TestInvalidOid_TestD2Ev
FNDA:1,_ZN36SnmpGetNextTest_TestUnknownHost_Test8TestBodyEv
FNDA:1,_ZN36SnmpGetNextTest_TestUnknownHost_TestC2Ev
FNDA:1,_ZN36SnmpGetNextTest_TestUnknownHost_TestD0Ev
FNDA:1,_ZN36SnmpGetNextTest_TestUnknownHost_TestD2Ev
FNDA:1,_ZN39SnmpGetNextTest_TestInvalidVersion_Test8TestBodyEv
FNDA:1,_ZN39SnmpGetNextTest_TestInvalidVersion_TestC2Ev
FNDA:1,_ZN39SnmpGetNextTest_TestInvalidVersion_TestD0Ev
FNDA:1,_ZN39SnmpGetNextTest_TestInvalidVersion_TestD2Ev
FNDA:5,_ZN15SnmpGetNextTest5SetUpEv
FNF:22
FNH:22
DA:9,5
DA:10,5
DA:13,4
DA:14,2
DA:16,5
DA:25,1
DA:26,1
DA:28,4
DA:29,2
DA:32,130
DA:33,258
DA:36,5
DA:47,1
DA:48,1
DA:50,4
DA:52,2
DA:54,5
DA:63,1
DA:64,1
DA:66,4
DA:68,2
DA:70,8
DA:83,1
DA:84,1
DA:86,4
DA:88,3
DA:90,5
DA:99,1
DA:100,1
LF:29
LH:29
end_of_record
TN:
SF:/home/runner/work/ezsnmp/ezsnmp/cpp_tests/test_snmpset.cpp
FN:10,10,_ZN11SnmpSetTest8TearDownEv
FN:13,13,_ZN31SnmpSetTest_TestInvalidOid_Test8TestBodyEv
FN:13,13,_ZN31SnmpSetTest_TestInvalidOid_TestC2Ev
FN:13,13,_ZN31SnmpSetTest_TestInvalidOid_TestD0Ev
FN:13,13,_ZN31SnmpSetTest_TestInvalidOid_TestD2Ev
FN:29,29,_ZN32SnmpSetTest_TestUnknownHost_Test8TestBodyEv
FN:29,29,_ZN32SnmpSetTest_TestUnknownHost_TestC2Ev
FN:29,29,_ZN32SnmpSetTest_TestUnknownHost_TestD0Ev
FN:29,29,_ZN32SnmpSetTest_TestUnknownHost_TestD2Ev
FN:55,55,_ZN35SnmpSetTest_TestInvalidVersion_Test8TestBodyEv
FN:55,55,_ZN35SnmpSetTest_TestInvalidVersion_TestC2Ev
FN:55,55,_ZN35SnmpSetTest_TestInvalidVersion_TestD0Ev
FN:55,55,_ZN35SnmpSetTest_TestInvalidVersion_TestD2Ev
FN:9,9,_ZN11SnmpSetTest5SetUpEv
FNDA:3,_ZN11SnmpSetTest8TearDownEv
FNDA:1,_ZN31SnmpSetTest_TestInvalidOid_Test8TestBodyEv
FNDA:1,_ZN31SnmpSetTest_TestInvalidOid_TestC2Ev
FNDA:1,_ZN31SnmpSetTest_TestInvalidOid_TestD0Ev
FNDA:1,_ZN31SnmpSetTest_TestInvalidOid_TestD2Ev
FNDA:1,_ZN32SnmpSetTest_TestUnknownHost_Test8TestBodyEv
FNDA:1,_ZN32SnmpSetTest_TestUnknownHost_TestC2Ev
FNDA:1,_ZN32SnmpSetTest_TestUnknownHost_TestD0Ev
FNDA:1,_ZN32SnmpSetTest_TestUnknownHost_TestD2Ev
FNDA:1,_ZN35SnmpSetTest_TestInvalidVersion_Test8TestBodyEv
FNDA:1,_ZN35SnmpSetTest_TestInvalidVersion_TestC2Ev
FNDA:1,_ZN35SnmpSetTest_TestInvalidVersion_TestD0Ev
FNDA:1,_ZN35SnmpSetTest_TestInvalidVersion_TestD2Ev
FNDA:3,_ZN11SnmpSetTest5SetUpEv
FNF:14
FNH:14
DA:9,3
DA:10,3
DA:13,4
DA:15,2
DA:17,5
DA:26,1
DA:27,1
DA:29,4
DA:37,2
DA:39,8
DA:52,1
DA:53,1
DA:55,4
DA:63,2
DA:65,5
DA:74,1
DA:75,1
LF:17
LH:17
end_of_record
TN:
SF:/home/runner/work/ezsnmp/ezsnmp/cpp_tests/test_snmpwalk.cpp
FN:12,12,_ZN32SnmpWalkTest_TestMissingOid_Test8TestBodyEv
FN:12,12,_ZN32SnmpWalkTest_TestMissingOid_TestC2Ev
FN:12,12,_ZN32SnmpWalkTest_TestMissingOid_TestD0Ev
FN:12,12,_ZN32SnmpWalkTest_TestMissingOid_TestD2Ev
FN:30,30,_ZN32SnmpWalkTest_TestInvalidOid_Test8TestBodyEv
FN:30,30,_ZN32SnmpWalkTest_TestInvalidOid_TestC2Ev
FN:30,30,_ZN32SnmpWalkTest_TestInvalidOid_TestD0Ev
FN:30,30,_ZN32SnmpWalkTest_TestInvalidOid_TestD2Ev
FN:46,46,_ZN33SnmpWalkTest_TestUnknownHost_Test8TestBodyEv
FN:46,46,_ZN33SnmpWalkTest_TestUnknownHost_TestC2Ev
FN:46,46,_ZN33SnmpWalkTest_TestUnknownHost_TestD0Ev
FN:46,46,_ZN33SnmpWalkTest_TestUnknownHost_TestD2Ev
FN:64,64,_ZN36SnmpWalkTest_TestInvalidVersion_Test8TestBodyEv
FN:64,64,_ZN36SnmpWalkTest_TestInvalidVersion_TestC2Ev
FN:64,64,_ZN36SnmpWalkTest_TestInvalidVersion_TestD0Ev
FN:64,64,_ZN36SnmpWalkTest_TestInvalidVersion_TestD2Ev
FN:8,8,_ZN12SnmpWalkTest5SetUpEv
FN:9,9,_ZN12SnmpWalkTest8TearDownEv
FNDA:1,_ZN32SnmpWalkTest_TestMissingOid_Test8TestBodyEv
FNDA:1,_ZN32SnmpWalkTest_TestMissingOid_TestC2Ev
FNDA:1,_ZN32SnmpWalkTest_TestMissingOid_TestD0Ev
FNDA:1,_ZN32SnmpWalkTest_TestMissingOid_TestD2Ev
FNDA:1,_ZN32SnmpWalkTest_TestInvalidOid_Test8TestBodyEv
FNDA:1,_ZN32SnmpWalkTest_TestInvalidOid_TestC2Ev
FNDA:1,_ZN32SnmpWalkTest_TestInvalidOid_TestD0Ev
FNDA:1,_ZN32SnmpWalkTest_TestInvalidOid_TestD2Ev
FNDA:1,_ZN33SnmpWalkTest_TestUnknownHost_Test8TestBodyEv
FNDA:1,_ZN33SnmpWalkTest_TestUnknownHost_TestC2Ev
FNDA:1,_ZN33SnmpWalkTest_TestUnknownHost_TestD0Ev
FNDA:1,_ZN33SnmpWalkTest_TestUnknownHost_TestD2Ev
FNDA:1,_ZN36SnmpWalkTest_TestInvalidVersion_Test8TestBodyEv
FNDA:1,_ZN36SnmpWalkTest_TestInvalidVersion_TestC2Ev
FNDA:1,_ZN36SnmpWalkTest_TestInvalidVersion_TestD0Ev
FNDA:1,_ZN36SnmpWalkTest_TestInvalidVersion_TestD2Ev
FNDA:4,_ZN12SnmpWalkTest5SetUpEv
FNDA:4,_ZN12SnmpWalkTest8TearDownEv
FNF:18
FNH:18
DA:8,4
DA:9,4
DA:12,4
DA:13,2
DA:15,8
DA:27,1
DA:28,1
DA:30,4
DA:32,2
DA:34,5
DA:43,1
DA:44,1
DA:46,4
DA:48,2
DA:50,8
DA:61,1
DA:62,1
DA:64,4
DA:66,2
DA:68,5
DA:77,1
DA:78,1
LF:22
LH:22
end_of_record
TN:
SF:/home/runner/work/ezsnmp/ezsnmp/ezsnmp/include/helpers.h
FN:61,65,_ZNK7DeleterclEPPc
FNDA:28,_ZNK7DeleterclEPPc
FNF:1
FNH:1
DA:61,28
DA:62,470
DA:63,442
DA:65,28
LF:4
LH:4
end_of_record
TN:
SF:/home/runner/work/ezsnmp/ezsnmp/ezsnmp/src/datatypes.cpp
FN:109,144,_ZNK6Result26_converted_value_to_stringB5cxx11Ev
FN:11,107,_ZN6Result21_make_converted_valueERKNSt7__cxx1112basic_stringIcSt11char_traitsIcESaIcEEES7_
FN:112,142,_ZZNK6Result26_converted_value_to_stringB5cxx11EvENKUlOT_E_clIRKNSt7__cxx1112basic_stringIcSt11char_traitsIcESaIcEEEEES9_S1_
FN:112,142,_ZZNK6Result26_converted_value_to_stringB5cxx11EvENKUlOT_E_clIRKSt6vectorIhSaIhEEEENSt7__cxx1112basic_stringIcSt11char_traitsIcESaIcEEES1_
FN:112,142,_ZZNK6Result26_converted_value_to_stringB5cxx11EvENKUlOT_E_clIRKdEENSt7__cxx1112basic_stringIcSt11char_traitsIcESaIcEEES1_
FN:112,142,_ZZNK6Result26_converted_value_to_stringB5cxx11EvENKUlOT_E_clIRKiEENSt7__cxx1112basic_stringIcSt11char_traitsIcESaIcEEES1_
FN:112,142,_ZZNK6Result26_converted_value_to_stringB5cxx11EvENKUlOT_E_clIRKjEENSt7__cxx1112basic_stringIcSt11char_traitsIcESaIcEEES1_
FN:112,142,_ZZNK6Result26_converted_value_to_stringB5cxx11EvENKUlOT_E_clIRKmEENSt7__cxx1112basic_stringIcSt11char_traitsIcESaIcEEES1_
FN:146,149,_ZNK6Result10_to_stringB5cxx11Ev
FN:151,153,_ZN6Result22update_converted_valueEv
FN:18,29,_ZZN6Result21_make_converted_valueERKNSt7__cxx1112basic_stringIcSt11char_traitsIcESaIcEEES7_ENKUlS7_E_clES7_
FN:32,46,_ZZN6Result21_make_converted_valueERKNSt7__cxx1112basic_stringIcSt11char_traitsIcESaIcEEES7_ENKUlT_E_clIZNS_21_make_converted_valueES7_S7_EUlS7_E0_EESt7variantIJijmdS5_St6vectorIhSaIhEEEES8_
FN:32,46,_ZZN6Result21_make_converted_valueERKNSt7__cxx1112basic_stringIcSt11char_traitsIcESaIcEEES7_ENKUlT_E_clIZNS_21_make_converted_valueES7_S7_EUlS7_E1_EESt7variantIJijmdS5_St6vectorIhSaIhEEEES8_
FN:32,46,_ZZN6Result21_make_converted_valueERKNSt7__cxx1112basic_stringIcSt11char_traitsIcESaIcEEES7_ENKUlT_E_clIZNS_21_make_converted_valueES7_S7_EUlS7_E2_EESt7variantIJijmdS5_St6vectorIhSaIhEEEES8_
FN:49,49,_ZZN6Result21_make_converted_valueERKNSt7__cxx1112basic_stringIcSt11char_traitsIcESaIcEEES7_ENKUlS7_E0_clES7_
FN:52,52,_ZZN6Result21_make_converted_valueERKNSt7__cxx1112basic_stringIcSt11char_traitsIcESaIcEEES7_ENKUlS7_E1_clES7_
FN:55,55,_ZZN6Result21_make_converted_valueERKNSt7__cxx1112basic_stringIcSt11char_traitsIcESaIcEEES7_ENKUlS7_E2_clES7_
FNDA:61,_ZNK6Result26_converted_value_to_stringB5cxx11Ev
FNDA:98,_ZN6Result21_make_converted_valueERKNSt7__cxx1112basic_stringIcSt11char_traitsIcESaIcEEES7_
FNDA:18,_ZZNK6Result26_converted_value_to_stringB5cxx11EvENKUlOT_E_clIRKNSt7__cxx1112basic_stringIcSt11char_traitsIcESaIcEEEEES9_S1_
FNDA:4,_ZZNK6Result26_converted_value_to_stringB5cxx11EvENKUlOT_E_clIRKSt6vectorIhSaIhEEEENSt7__cxx1112basic_stringIcSt11char_traitsIcESaIcEEES1_
FNDA:0,_ZZNK6Result26_converted_value_to_stringB5cxx11EvENKUlOT_E_clIRKdEENSt7__cxx1112basic_stringIcSt11char_traitsIcESaIcEEES1_
FNDA:27,_ZZNK6Result26_converted_value_to_stringB5cxx11EvENKUlOT_E_clIRKiEENSt7__cxx1112basic_stringIcSt11char_traitsIcESaIcEEES1_
FNDA:10,_ZZNK6Result26_converted_value_to_stringB5cxx11EvENKUlOT_E_clIRKjEENSt7__cxx1112basic_stringIcSt11char_traitsIcESaIcEEES1_
FNDA:2,_ZZNK6Result26_converted_value_to_stringB5cxx11EvENKUlOT_E_clIRKmEENSt7__cxx1112basic_stringIcSt11char_traitsIcESaIcEEES1_
FNDA:37,_ZNK6Result10_to_stringB5cxx11Ev
FNDA:67,_ZN6Result22update_converted_valueEv
FNDA:48,_ZZN6Result21_make_converted_valueERKNSt7__cxx1112basic_stringIcSt11char_traitsIcESaIcEEES7_ENKUlS7_E_clES7_
FNDA:27,_ZZN6Result21_make_converted_valueERKNSt7__cxx1112basic_stringIcSt11char_traitsIcESaIcEEES7_ENKUlT_E_clIZNS_21_make_converted_valueES7_S7_EUlS7_E0_EESt7variantIJijmdS5_St6vectorIhSaIhEEEES8_
FNDA:17,_ZZN6Result21_make_converted_valueERKNSt7__cxx1112basic_stringIcSt11char_traitsIcESaIcEEES7_ENKUlT_E_clIZNS_21_make_converted_valueES7_S7_EUlS7_E1_EESt7variantIJijmdS5_St6vectorIhSaIhEEEES8_
FNDA:4,_ZZN6Result21_make_converted_valueERKNSt7__cxx1112basic_stringIcSt11char_traitsIcESaIcEEES7_ENKUlT_E_clIZNS_21_make_converted_valueES7_S7_EUlS7_E2_EESt7variantIJijmdS5_St6vectorIhSaIhEEEES8_
FNDA:25,_ZZN6Result21_make_converted_valueERKNSt7__cxx1112basic_stringIcSt11char_traitsIcESaIcEEES7_ENKUlS7_E0_clES7_
FNDA:17,_ZZN6Result21_make_converted_valueERKNSt7__cxx1112basic_stringIcSt11char_traitsIcESaIcEEES7_ENKUlS7_E1_clES7_
FNDA:4,_ZZN6Result21_make_converted_valueERKNSt7__cxx1112basic_stringIcSt11char_traitsIcESaIcEEES7_ENKUlS7_E2_clES7_
FNF:17
FNH:16
DA:11,98
DA:14,98
DA:15,98
DA:18,48
DA:19,48
DA:21,48
DA:22,15
DA:23,33
DA:24,66
DA:26,30
DA:28,3
DA:29,48
DA:32,48
DA:33,48
DA:34,48
DA:35,2
DA:36,2
DA:39,0
DA:42,46
DA:43,1
DA:44,1
DA:46,146
DA:48,98
DA:49,52
DA:50,71
DA:52,34
DA:53,54
DA:55,8
DA:56,50
DA:57,5
DA:58,5
DA:59,5
DA:62,5
DA:63,1
DA:66,22
DA:67,37
DA:68,18
DA:69,1
DA:73,18
DA:74,18
DA:75,18
DA:77,0
DA:79,18
DA:80,18
DA:81,3
DA:83,50
DA:85,3
DA:86,3
DA:87,29
DA:88,26
DA:90,3
DA:92,45
DA:93,20
DA:94,15
DA:95,11
DA:96,9
DA:97,9
DA:98,9
DA:99,62
DA:102,35
DA:106,7
DA:107,98
DA:109,61
DA:112,122
DA:116,27
DA:118,10
DA:120,2
DA:122,0
DA:124,18
DA:127,4
DA:128,4
DA:129,42
DA:130,38
DA:131,38
DA:132,34
DA:135,4
DA:136,0
DA:138,8
DA:139,4
DA:143,122
DA:146,37
DA:147,74
DA:148,111
DA:151,67
DA:152,67
DA:153,67
LF:86
LH:82
end_of_record
TN:
SF:/home/runner/work/ezsnmp/ezsnmp/ezsnmp/src/exceptionsbase.cpp
FN:11,12,_ZN24UnknownObjectIDErrorBaseC2ERKNSt7__cxx1112basic_stringIcSt11char_traitsIcESaIcEEE
FN:14,14,_ZN19NoSuchNameErrorBaseC2ERKNSt7__cxx1112basic_stringIcSt11char_traitsIcESaIcEEE
FN:16,17,_ZN21NoSuchObjectErrorBaseC2ERKNSt7__cxx1112basic_stringIcSt11char_traitsIcESaIcEEE
FN:19,20,_ZN23NoSuchInstanceErrorBaseC2ERKNSt7__cxx1112basic_stringIcSt11char_traitsIcESaIcEEE
FN:22,23,_ZN25UndeterminedTypeErrorBaseC2ERKNSt7__cxx1112basic_stringIcSt11char_traitsIcESaIcEEE
FN:25,25,_ZN14ParseErrorBaseC2ERKNSt7__cxx1112basic_stringIcSt11char_traitsIcESaIcEEE
FN:27,27,_ZN15PacketErrorBaseC2ERKNSt7__cxx1112basic_stringIcSt11char_traitsIcESaIcEEE
FN:3,3,_ZN16GenericErrorBaseC2ERKNSt7__cxx1112basic_stringIcSt11char_traitsIcESaIcEEE
FN:5,5,_ZNK16GenericErrorBase4whatEv
FN:7,7,_ZN19ConnectionErrorBaseC2ERKNSt7__cxx1112basic_stringIcSt11char_traitsIcESaIcEEE
FN:9,9,_ZN16TimeoutErrorBaseC2ERKNSt7__cxx1112basic_stringIcSt11char_traitsIcESaIcEEE
FNDA:2,_ZN24UnknownObjectIDErrorBaseC2ERKNSt7__cxx1112basic_stringIcSt11char_traitsIcESaIcEEE
FNDA:2,_ZN19NoSuchNameErrorBaseC2ERKNSt7__cxx1112basic_stringIcSt11char_traitsIcESaIcEEE
FNDA:2,_ZN21NoSuchObjectErrorBaseC2ERKNSt7__cxx1112basic_stringIcSt11char_traitsIcESaIcEEE
FNDA:2,_ZN23NoSuchInstanceErrorBaseC2ERKNSt7__cxx1112basic_stringIcSt11char_traitsIcESaIcEEE
FNDA:2,_ZN25UndeterminedTypeErrorBaseC2ERKNSt7__cxx1112basic_stringIcSt11char_traitsIcESaIcEEE
FNDA:8,_ZN14ParseErrorBaseC2ERKNSt7__cxx1112basic_stringIcSt11char_traitsIcESaIcEEE
FNDA:3,_ZN15PacketErrorBaseC2ERKNSt7__cxx1112basic_stringIcSt11char_traitsIcESaIcEEE
FNDA:54,_ZN16GenericErrorBaseC2ERKNSt7__cxx1112basic_stringIcSt11char_traitsIcESaIcEEE
FNDA:44,_ZNK16GenericErrorBase4whatEv
FNDA:9,_ZN19ConnectionErrorBaseC2ERKNSt7__cxx1112basic_stringIcSt11char_traitsIcESaIcEEE
FNDA:4,_ZN16TimeoutErrorBaseC2ERKNSt7__cxx1112basic_stringIcSt11char_traitsIcESaIcEEE
FNF:11
FNH:11
DA:3,54
DA:5,44
DA:7,9
DA:9,4
DA:11,2
DA:12,2
DA:14,2
DA:16,2
DA:17,2
DA:19,2
DA:20,2
DA:22,2
DA:23,2
DA:25,8
DA:27,3
LF:15
LH:15
end_of_record
TN:
SF:/home/runner/work/ezsnmp/ezsnmp/ezsnmp/src/helpers.cpp
FN:137,207,_Z12parse_resultRKNSt7__cxx1112basic_stringIcSt11char_traitsIcESaIcEEE
FN:17,38,_Z24print_variable_to_stringB5cxx11PKmmPK13variable_list
FN:210,216,_Z13parse_resultsRKSt6vectorINSt7__cxx1112basic_stringIcSt11char_traitsIcESaIcEEESaIS5_EE
FN:219,268,_Z25remove_v3_user_from_cacheRKNSt7__cxx1112basic_stringIcSt11char_traitsIcESaIcEEES6_
FN:270,292,_Z21print_objid_to_stringB5cxx11PKmm
FN:294,302,_Z27clear_net_snmp_library_datav
FN:44,76,_Z26snmp_sess_perror_exceptionPKcP12snmp_session
FN:82,91,_Z21snmp_perror_exceptionPKc
FN:95,111,_Z11create_argvRKSt6vectorINSt7__cxx1112basic_stringIcSt11char_traitsIcESaIcEEESaIS5_EERi
FNDA:34,_Z12parse_resultRKNSt7__cxx1112basic_stringIcSt11char_traitsIcESaIcEEE
FNDA:0,_Z24print_variable_to_stringB5cxx11PKmmPK13variable_list
FNDA:17,_Z13parse_resultsRKSt6vectorINSt7__cxx1112basic_stringIcSt11char_traitsIcESaIcEEESaIS5_EE
FNDA:0,_Z25remove_v3_user_from_cacheRKNSt7__cxx1112basic_stringIcSt11char_traitsIcESaIcEEES6_
FNDA:0,_Z21print_objid_to_stringB5cxx11PKmm
FNDA:0,_Z27clear_net_snmp_library_datav
FNDA:6,_Z26snmp_sess_perror_exceptionPKcP12snmp_session
FNDA:11,_Z21snmp_perror_exceptionPKc
FNDA:28,_Z11create_argvRKSt6vectorINSt7__cxx1112basic_stringIcSt11char_traitsIcESaIcEEESaIS5_EERi
FNF:9
FNH:5
DA:17,0
DA:20,0
DA:21,0
DA:23,0
DA:24,0
DA:26,0
DA:28,0
DA:29,0
DA:30,0
DA:31,0
DA:33,0
DA:34,0
DA:35,0
DA:36,0
DA:44,6
DA:45,6
DA:46,6
DA:48,6
DA:49,6
DA:50,6
DA:51,6
DA:54,6
DA:56,6
DA:57,6
DA:59,6
DA:62,0
DA:63,0
DA:65,0
DA:68,0
DA:69,0
DA:71,0
DA:75,0
DA:76,12
DA:82,11
DA:83,11
DA:84,11
DA:87,11
DA:90,11
DA:91,11
DA:95,28
DA:96,28
DA:97,28
DA:99,28
DA:101,470
DA:102,442
DA:104,442
DA:105,0
DA:108,28
DA:110,28
DA:111,0
DA:137,34
DA:138,34
DA:139,34
DA:140,34
DA:143,34
DA:144,34
DA:147,34
DA:148,34
DA:149,34
DA:151,34
DA:152,4
DA:153,4
DA:154,4
DA:155,4
DA:156,34
DA:157,28
DA:158,28
DA:159,28
DA:160,28
DA:161,30
DA:162,0
DA:163,0
DA:164,0
DA:165,0
DA:166,2
DA:167,0
DA:170,2
DA:174,34
DA:175,34
DA:176,34
DA:177,34
DA:179,0
DA:183,34
DA:184,34
DA:185,33
DA:187,34
DA:190,34
DA:191,2
DA:194,32
DA:195,2
DA:200,30
DA:201,1
DA:204,34
DA:206,68
DA:207,34
DA:210,17
DA:211,17
DA:212,51
DA:213,34
DA:215,17
DA:216,0
DA:219,0
DA:223,0
DA:225,0
DA:226,0
DA:227,0
DA:228,0
DA:230,0
DA:231,0
DA:233,0
DA:234,0
DA:249,0
DA:250,0
DA:251,0
DA:253,0
DA:254,0
DA:255,0
DA:256,0
DA:257,0
DA:258,0
DA:260,0
DA:261,0
DA:262,0
DA:263,0
DA:264,0
DA:266,0
DA:267,0
DA:268,0
DA:270,0
DA:272,0
DA:273,0
DA:274,0
DA:275,0
DA:277,0
DA:278,0
DA:279,0
DA:281,0
DA:283,0
DA:284,0
DA:286,0
DA:290,0
DA:291,0
DA:292,0
DA:294,0
DA:297,0
DA:299,0
DA:301,0
DA:302,0
LF:148
LH:71
end_of_record
TN:
SF:/home/runner/work/ezsnmp/ezsnmp/ezsnmp/src/net-snmp-5.9-final-patched/snmpbulkget.cpp
FN:130,261,_Z11snmpbulkgetRKSt6vectorINSt7__cxx1112basic_stringIcSt11char_traitsIcESaIcEEESaIS5_EERKS5_
FN:82,90,_Z17snmpbulkget_usagev
FN:92,128,_Z19snmpbulkget_optProciPKPci
FNDA:3,_Z11snmpbulkgetRKSt6vectorINSt7__cxx1112basic_stringIcSt11char_traitsIcESaIcEEESaIS5_EERKS5_
FNDA:0,_Z17snmpbulkget_usagev
FNDA:0,_Z19snmpbulkget_optProciPKPci
FNF:3
FNH:1
DA:82,0
DA:83,0
DA:84,0
DA:85,0
DA:86,0
DA:87,0
DA:88,0
DA:89,0
DA:90,0
DA:92,0
DA:93,0
DA:95,0
DA:96,0
DA:97,0
DA:98,0
DA:99,0
DA:101,0
DA:102,0
DA:104,0
DA:107,0
DA:111,0
DA:112,0
DA:114,0
DA:115,0
DA:116,0
DA:119,0
DA:121,0
DA:123,0
DA:124,0
DA:130,3
DA:133,3
DA:134,3
DA:137,3
DA:139,3
DA:153,3
DA:154,0
DA:155,0
DA:157,0
DA:158,0
DA:160,1
DA:161,3
DA:163,2
DA:164,2
DA:167,2
DA:168,2
DA:169,0
DA:170,0
DA:173,2
DA:174,3
DA:175,2
DA:176,2
DA:177,1
DA:178,0
DA:180,1
DA:181,1
DA:187,1
DA:188,1
DA:192,1
DA:193,0
DA:199,0
DA:200,0
DA:201,0
DA:202,0
DA:203,0
DA:209,0
DA:210,0
DA:211,0
DA:215,0
DA:216,0
DA:217,0
DA:218,0
DA:223,0
DA:227,0
DA:228,0
DA:229,0
DA:230,0
DA:231,0
DA:232,0
DA:234,0
DA:235,0
DA:237,0
DA:238,0
DA:240,0
DA:242,0
DA:243,0
DA:244,0
DA:246,0
DA:247,0
DA:250,0
DA:251,0
DA:254,0
DA:256,0
DA:257,0
DA:259,0
DA:260,0
DA:261,0
LF:96
LH:22
end_of_record
TN:
SF:/home/runner/work/ezsnmp/ezsnmp/ezsnmp/src/net-snmp-5.9-final-patched/snmpbulkwalk.cpp
FN:121,173,_Z20snmpbulkwalk_optProciPKPci
FN:175,392,_Z12snmpbulkwalkRKSt6vectorINSt7__cxx1112basic_stringIcSt11char_traitsIcESaIcEEESaIS5_EERKS5_
FN:81,92,_Z18snmpbulkwalk_usagev
FN:94,119,_Z31snmpbulkwalk_snmp_get_and_printB5cxx11P12snmp_sessionPmm
FNDA:0,_Z20snmpbulkwalk_optProciPKPci
FNDA:3,_Z12snmpbulkwalkRKSt6vectorINSt7__cxx1112basic_stringIcSt11char_traitsIcESaIcEEESaIS5_EERKS5_
FNDA:0,_Z18snmpbulkwalk_usagev
FNDA:0,_Z31snmpbulkwalk_snmp_get_and_printB5cxx11P12snmp_sessionPmm
FNF:4
FNH:1
DA:81,0
DA:82,0
DA:83,0
DA:84,0
DA:85,0
DA:86,0
DA:87,0
DA:88,0
DA:89,0
DA:90,0
DA:91,0
DA:92,0
DA:94,0
DA:97,0
DA:103,0
DA:104,0
DA:106,0
DA:107,0
DA:108,0
DA:109,0
DA:110,0
DA:111,0
DA:112,0
DA:114,0
DA:115,0
DA:118,0
DA:119,0
DA:121,0
DA:122,0
DA:124,0
DA:125,0
DA:126,0
DA:127,0
DA:128,0
DA:129,0
DA:131,0
DA:133,0
DA:134,0
DA:136,0
DA:138,0
DA:140,0
DA:141,0
DA:143,0
DA:146,0
DA:150,0
DA:151,0
DA:153,0
DA:154,0
DA:155,0
DA:158,0
DA:160,0
DA:161,0
DA:163,0
DA:165,0
DA:167,0
DA:168,0
DA:171,0
DA:175,3
DA:178,3
DA:179,3
DA:182,3
DA:184,3
DA:195,3
DA:200,3
DA:202,3
DA:204,3
DA:210,3
DA:211,0
DA:212,0
DA:214,0
DA:215,0
DA:217,1
DA:218,3
DA:220,2
DA:221,2
DA:227,2
DA:231,2
DA:232,2
DA:233,1
DA:234,0
DA:240,0
DA:241,0
DA:247,1
DA:248,1
DA:252,1
DA:253,0
DA:259,0
DA:260,0
DA:262,0
DA:264,0
DA:265,0
DA:266,0
DA:267,0
DA:269,0
DA:270,0
DA:272,0
DA:274,0
DA:278,0
DA:279,0
DA:280,0
DA:281,0
DA:286,0
DA:287,0
DA:288,0
DA:292,0
DA:293,0
DA:294,0
DA:298,0
DA:299,0
DA:301,0
DA:303,0
DA:304,0
DA:305,0
DA:306,0
DA:310,0
DA:311,0
DA:312,0
DA:313,0
DA:315,0
DA:317,0
DA:318,0
DA:322,0
DA:323,0
DA:324,0
DA:326,0
DA:330,0
DA:332,0
DA:337,0
DA:338,0
DA:342,0
DA:343,0
DA:344,0
DA:345,0
DA:346,0
DA:347,0
DA:349,0
DA:350,0
DA:352,0
DA:353,0
DA:355,0
DA:357,0
DA:358,0
DA:359,0
DA:361,0
DA:362,0
DA:364,0
DA:365,0
DA:369,0
DA:375,0
DA:377,0
DA:378,0
DA:380,0
DA:381,0
DA:383,0
DA:384,0
DA:387,0
DA:388,0
DA:391,0
DA:392,0
LF:159
LH:21
end_of_record
TN:
SF:/home/runner/work/ezsnmp/ezsnmp/ezsnmp/src/net-snmp-5.9-final-patched/snmpget.cpp
FN:75,92,_Z15snmpget_optProciPKPci
FN:94,245,_Z7snmpgetRKSt6vectorINSt7__cxx1112basic_stringIcSt11char_traitsIcESaIcEEESaIS5_EERKS5_
FNDA:0,_Z15snmpget_optProciPKPci
FNDA:10,_Z7snmpgetRKSt6vectorINSt7__cxx1112basic_stringIcSt11char_traitsIcESaIcEEESaIS5_EERKS5_
FNF:2
FNH:1
DA:75,0
DA:76,0
DA:77,0
DA:78,0
DA:79,0
DA:80,0
DA:81,0
DA:83,0
DA:84,0
DA:86,0
DA:87,0
DA:90,0
DA:92,0
DA:94,10
DA:97,10
DA:98,10
DA:100,10
DA:101,10
DA:102,10
DA:104,10
DA:105,10
DA:106,10
DA:107,10
DA:108,10
DA:109,10
DA:110,10
DA:111,10
DA:112,10
DA:113,10
DA:114,10
DA:115,10
DA:122,10
DA:123,0
DA:124,0
DA:126,0
DA:127,0
DA:129,1
DA:130,3
DA:132,9
DA:133,9
DA:136,9
DA:137,1
DA:138,1
DA:139,1
DA:140,8
DA:143,2
DA:144,3
DA:145,1
DA:146,1
DA:151,15
DA:152,8
DA:158,7
DA:159,7
DA:163,1
DA:169,6
DA:170,6
DA:171,6
DA:172,6
DA:173,6
DA:174,0
DA:176,0
DA:179,0
DA:180,0
DA:181,0
DA:182,0
DA:191,0
DA:192,0
DA:193,0
DA:194,0
DA:195,0
DA:196,0
DA:197,0
DA:198,0
DA:201,0
DA:203,0
DA:204,0
DA:205,0
DA:206,0
DA:208,0
DA:209,0
DA:211,0
DA:217,0
DA:218,0
DA:219,0
DA:220,0
DA:221,0
DA:222,0
DA:225,0
DA:227,0
DA:228,0
DA:229,0
DA:230,0
DA:231,0
DA:232,0
DA:236,0
DA:237,0
DA:240,0
DA:241,0
DA:244,0
DA:245,0
LF:100
LH:42
end_of_record
TN:
SF:/home/runner/work/ezsnmp/ezsnmp/ezsnmp/src/net-snmp-5.9-final-patched/snmpgetnext.cpp
FN:73,90,_Z19snmpgetnext_optProciPKPci
FN:92,241,_Z11snmpgetnextRKSt6vectorINSt7__cxx1112basic_stringIcSt11char_traitsIcESaIcEEESaIS5_EERKS5_
FNDA:0,_Z19snmpgetnext_optProciPKPci
FNDA:5,_Z11snmpgetnextRKSt6vectorINSt7__cxx1112basic_stringIcSt11char_traitsIcESaIcEEESaIS5_EERKS5_
FNF:2
FNH:1
DA:73,0
DA:74,0
DA:75,0
DA:76,0
DA:77,0
DA:78,0
DA:79,0
DA:81,0
DA:82,0
DA:84,0
DA:85,0
DA:88,0
DA:90,0
DA:92,5
DA:95,5
DA:96,5
DA:99,5
DA:100,5
DA:107,5
DA:112,5
DA:119,5
DA:120,0
DA:121,0
DA:123,0
DA:124,0
DA:126,1
DA:127,3
DA:129,4
DA:130,4
DA:133,4
DA:134,1
DA:135,1
DA:136,1
DA:137,3
DA:140,2
DA:141,3
DA:142,1
DA:143,1
DA:148,4
DA:149,2
DA:155,2
DA:156,2
DA:160,1
DA:161,0
DA:167,1
DA:169,1
DA:170,1
DA:171,1
DA:172,1
DA:173,0
DA:175,0
DA:178,0
DA:179,0
DA:185,0
DA:186,0
DA:187,0
DA:188,0
DA:189,0
DA:190,0
DA:191,0
DA:192,0
DA:195,0
DA:197,0
DA:198,0
DA:199,0
DA:200,0
DA:202,0
DA:203,0
DA:205,0
DA:211,0
DA:212,0
DA:213,0
DA:214,0
DA:215,0
DA:216,0
DA:219,0
DA:220,0
DA:221,0
DA:222,0
DA:223,0
DA:224,0
DA:225,0
DA:228,0
DA:229,0
DA:232,0
DA:233,0
DA:235,0
DA:236,0
DA:237,0
DA:240,0
DA:241,0
LF:91
LH:31
end_of_record
TN:
SF:/home/runner/work/ezsnmp/ezsnmp/ezsnmp/src/net-snmp-5.9-final-patched/snmpset.cpp
FN:107,291,_Z7snmpsetRKSt6vectorINSt7__cxx1112basic_stringIcSt11char_traitsIcESaIcEEESaIS5_EERKS5_
FN:72,85,_Z13snmpset_usagev
FN:89,105,_Z15snmpset_optProciPKPci
FNDA:3,_Z7snmpsetRKSt6vectorINSt7__cxx1112basic_stringIcSt11char_traitsIcESaIcEEESaIS5_EERKS5_
FNDA:0,_Z13snmpset_usagev
FNDA:0,_Z15snmpset_optProciPKPci
FNF:3
FNH:1
DA:72,0
DA:73,0
DA:74,0
DA:75,0
DA:76,0
DA:77,0
DA:78,0
DA:79,0
DA:80,0
DA:81,0
DA:83,0
DA:85,0
DA:89,0
DA:90,0
DA:91,0
DA:92,0
DA:93,0
DA:94,0
DA:95,0
DA:96,0
DA:98,0
DA:100,0
DA:101,0
DA:105,0
DA:107,3
DA:110,3
DA:111,3
DA:114,3
DA:115,3
DA:118,3
DA:122,3
DA:123,3
DA:124,3
DA:131,3
DA:135,3
DA:140,3
DA:141,0
DA:142,0
DA:144,0
DA:145,0
DA:147,1
DA:148,3
DA:150,2
DA:151,2
DA:154,2
DA:155,0
DA:156,0
DA:157,0
DA:159,2
DA:160,0
DA:161,0
DA:162,0
DA:163,0
DA:169,4
DA:170,2
DA:172,2
DA:173,2
DA:174,2
DA:175,2
DA:193,2
DA:194,2
DA:195,0
DA:196,0
DA:197,0
DA:200,0
DA:201,0
DA:203,2
DA:204,2
DA:206,0
DA:207,0
DA:214,2
DA:215,2
DA:219,1
DA:220,0
DA:226,1
DA:227,1
DA:228,1
DA:229,1
DA:230,1
DA:231,0
DA:232,0
DA:233,0
DA:234,0
DA:238,0
DA:239,0
DA:245,0
DA:246,0
DA:247,0
DA:248,0
DA:249,0
DA:251,0
DA:252,0
DA:253,0
DA:257,0
DA:259,0
DA:260,0
DA:261,0
DA:262,0
DA:264,0
DA:265,0
DA:267,0
DA:269,0
DA:270,0
DA:271,0
DA:272,0
DA:273,0
DA:274,0
DA:275,0
DA:278,0
DA:279,0
DA:282,0
DA:283,0
DA:285,0
DA:286,0
DA:287,0
DA:290,0
DA:291,0
LF:117
LH:36
end_of_record
TN:
SF:/home/runner/work/ezsnmp/ezsnmp/ezsnmp/src/net-snmp-5.9-final-patched/snmpwalk.cpp
FN:111,158,_Z16snmpwalk_optProciPKPci
FN:160,425,_Z8snmpwalkRKSt6vectorINSt7__cxx1112basic_stringIcSt11char_traitsIcESaIcEEESaIS5_EERKS5_
FN:84,109,_Z27snmpwalk_snmp_get_and_printB5cxx11P12snmp_sessionPmm
FNDA:0,_Z16snmpwalk_optProciPKPci
FNDA:4,_Z8snmpwalkRKSt6vectorINSt7__cxx1112basic_stringIcSt11char_traitsIcESaIcEEESaIS5_EERKS5_
FNDA:0,_Z27snmpwalk_snmp_get_and_printB5cxx11P12snmp_sessionPmm
FNF:3
FNH:1
DA:84,0
DA:87,0
DA:93,0
DA:94,0
DA:96,0
DA:97,0
DA:98,0
DA:99,0
DA:100,0
DA:101,0
DA:102,0
DA:104,0
DA:105,0
DA:108,0
DA:109,0
DA:111,0
DA:112,0
DA:113,0
DA:114,0
DA:115,0
DA:116,0
DA:117,0
DA:119,0
DA:121,0
DA:122,0
DA:124,0
DA:126,0
DA:127,0
DA:129,0
DA:131,0
DA:132,0
DA:134,0
DA:136,0
DA:137,0
DA:139,0
DA:141,0
DA:142,0
DA:143,0
DA:145,0
DA:146,0
DA:148,0
DA:150,0
DA:152,0
DA:153,0
DA:156,0
DA:158,0
DA:160,4
DA:163,4
DA:164,4
DA:167,4
DA:168,4
DA:179,4
DA:182,4
DA:188,4
DA:191,4
DA:194,4
DA:197,4
DA:200,4
DA:203,4
DA:209,4
DA:210,0
DA:211,0
DA:213,0
DA:214,0
DA:216,1
DA:217,3
DA:219,3
DA:220,3
DA:226,3
DA:230,2
DA:231,2
DA:232,1
DA:238,1
DA:239,1
DA:247,2
DA:248,0
DA:249,0
DA:250,0
DA:253,2
DA:254,2
DA:255,2
DA:261,2
DA:262,2
DA:266,1
DA:272,1
DA:273,1
DA:275,1
DA:277,1
DA:278,1
DA:279,1
DA:280,0
DA:282,0
DA:283,0
DA:285,0
DA:287,1
DA:288,0
DA:291,1
DA:295,1
DA:296,1
DA:301,1
DA:302,0
DA:304,1
DA:305,1
DA:306,0
DA:308,0
DA:310,0
DA:314,0
DA:315,0
DA:319,0
DA:320,0
DA:322,0
DA:323,0
DA:325,0
DA:326,0
DA:327,0
DA:331,0
DA:332,0
DA:334,0
DA:335,0
DA:339,0
DA:340,0
DA:341,0
DA:342,0
DA:344,0
DA:346,0
DA:347,0
DA:348,0
DA:349,0
DA:350,0
DA:354,0
DA:356,0
DA:361,0
DA:362,0
DA:366,0
DA:367,0
DA:369,0
DA:370,0
DA:371,0
DA:372,0
DA:374,0
DA:375,0
DA:377,0
DA:378,0
DA:380,0
DA:382,1
DA:383,1
DA:384,1
DA:385,1
DA:386,0
DA:388,0
DA:389,0
DA:392,0
DA:393,0
DA:396,0
DA:402,0
DA:403,0
DA:405,0
DA:406,0
DA:408,0
DA:410,0
DA:412,0
DA:413,0
DA:415,0
DA:416,0
DA:417,0
DA:420,0
DA:421,0
DA:424,0
DA:425,0
LF:169
LH:48
end_of_record
